

Microchip MPLAB XC8 Assembler V3.00 build 20241204225717 
                                                                                               Tue Jun 24 21:44:48 2025

Microchip MPLAB XC8 C Compiler v3.00 (Free license) build 20241204225717 Og1 
     1                           	processor	16F877A
     2                           	pagewidth 120
     3                           	opt	flic
     4                           	psect	idataCOMMON,global,class=CODE,space=0,delta=2,noexec
     5                           	psect	idataBANK0,global,class=CODE,space=0,delta=2,noexec
     6                           	psect	idataBANK1,global,class=CODE,space=0,delta=2,noexec
     7                           	psect	strings,global,class=STRING,space=0,delta=2,noexec
     8                           	psect	stringtext,global,reloc=256,class=STRCODE,space=0,delta=2,noexec
     9                           	psect	cinit,global,class=CODE,space=0,merge=1,delta=2
    10                           	psect	dataCOMMON,global,class=COMMON,space=1,delta=1,noexec
    11                           	psect	bssBANK0,global,class=BANK0,space=1,delta=1,noexec
    12                           	psect	dataBANK0,global,class=BANK0,space=1,delta=1,noexec
    13                           	psect	bssBANK1,global,class=BANK1,space=1,delta=1,noexec
    14                           	psect	dataBANK1,global,class=BANK1,space=1,delta=1,noexec
    15                           	psect	inittext,global,class=CODE,space=0,delta=2
    16                           	psect	cstackCOMMON,global,class=COMMON,space=1,delta=1,noexec
    17                           	psect	cstackBANK0,global,class=BANK0,space=1,delta=1,noexec
    18                           	psect	maintext,global,class=CODE,space=0,split=1,delta=2
    19                           	psect	text1,local,class=CODE,space=0,merge=1,delta=2
    20                           	psect	text2,local,class=CODE,space=0,merge=1,delta=2
    21                           	psect	text3,local,class=CODE,space=0,merge=1,delta=2
    22                           	psect	text4,local,class=CODE,space=0,merge=1,delta=2
    23                           	psect	text5,local,class=CODE,space=0,merge=1,delta=2
    24                           	psect	text6,local,class=CODE,space=0,merge=1,delta=2
    25                           	psect	text7,local,class=CODE,space=0,merge=1,delta=2,group=1
    26                           	psect	text8,local,class=CODE,space=0,merge=1,delta=2,group=1
    27                           	psect	text9,local,class=CODE,space=0,merge=1,delta=2,group=1
    28                           	psect	text10,local,class=CODE,space=0,merge=1,delta=2,group=1
    29                           	psect	text11,local,class=CODE,space=0,merge=1,delta=2,group=1
    30                           	psect	text12,local,class=CODE,space=0,merge=1,delta=2,group=1
    31                           	psect	text13,local,class=CODE,space=0,merge=1,delta=2,group=1
    32                           	psect	text14,local,class=CODE,space=0,merge=1,delta=2,group=1
    33                           	psect	text15,local,class=CODE,space=0,merge=1,delta=2,group=1
    34                           	psect	text16,local,class=CODE,space=0,merge=1,delta=2,group=1
    35                           	psect	text17,local,class=CODE,space=0,merge=1,delta=2
    36                           	psect	text18,local,class=CODE,space=0,merge=1,delta=2
    37                           	psect	text19,local,class=CODE,space=0,merge=1,delta=2
    38                           	psect	text20,local,class=CODE,space=0,merge=1,delta=2
    39                           	psect	text21,local,class=CODE,space=0,merge=1,delta=2
    40                           	psect	text22,local,class=CODE,space=0,merge=1,delta=2
    41                           	psect	text23,local,class=CODE,space=0,merge=1,delta=2
    42                           	psect	text24,local,class=CODE,space=0,merge=1,delta=2
    43                           	psect	text25,local,class=CODE,space=0,merge=1,delta=2
    44                           	psect	text26,local,class=CODE,space=0,merge=1,delta=2
    45                           	psect	text27,local,class=CODE,space=0,merge=1,delta=2
    46                           	psect	intentry,global,class=CODE,space=0,delta=2
    47                           	psect	config,global,abs,ovrld,class=CONFIG,space=4,delta=2,noexec
    48                           	dabs	1,0x7E,2
    49     0000                     
    50                           ; Generated 12/10/2023 GMT
    51                           ; 
    52                           ; Copyright © 2023, Microchip Technology Inc. and its subsidiaries ("Microchip")
    53                           ; All rights reserved.
    54                           ; 
    55                           ; This software is developed by Microchip Technology Inc. and its subsidiaries ("Microch
      +                          ip").
    56                           ; 
    57                           ; Redistribution and use in source and binary forms, with or without modification, are
    58                           ; permitted provided that the following conditions are met:
    59                           ; 
    60                           ;     1. Redistributions of source code must retain the above copyright notice, this lis
      +                          t of
    61                           ;        conditions and the following disclaimer.
    62                           ; 
    63                           ;     2. Redistributions in binary form must reproduce the above copyright notice, this 
      +                          list
    64                           ;        of conditions and the following disclaimer in the documentation and/or other
    65                           ;        materials provided with the distribution. Publication is not required when
    66                           ;        this file is used in an embedded application.
    67                           ; 
    68                           ;     3. Microchip's name may not be used to endorse or promote products derived from th
      +                          is
    69                           ;        software without specific prior written permission.
    70                           ; 
    71                           ; THIS SOFTWARE IS PROVIDED BY MICROCHIP "AS IS" AND ANY EXPRESS OR IMPLIED WARRANTIES,
    72                           ; INCLUDING, BUT NOT LIMITED TO, THE IMPLIED WARRANTIES OF MERCHANTABILITY AND FITNESS F
      +                          OR
    73                           ; PURPOSE ARE DISCLAIMED.  IN NO EVENT SHALL MICROCHIP BE LIABLE FOR ANY DIRECT, INDIREC
      +                          T,
    74                           ; INCIDENTAL, SPECIAL, EXEMPLARY, OR CONSEQUENTIAL DAMAGES (INCLUDING BUT NOT LIMITED TO
    75                           ; PROCUREMENT OF SUBSTITUTE GOODS OR SERVICES; LOSS OF USE, DATA OR PROFITS; OR BUSINESS
    76                           ; INTERRUPTION) HOWSOEVER CAUSED AND ON ANY THEORY OF LIABILITY, WHETHER IN CONTRACT, ST
      +                          RICT
    77                           ; LIABILITY, OR TORT (INCLUDING NEGLIGENCE OR OTHERWISE) ARISING IN ANY WAY OUT OF THE U
      +                          SE OF
    78                           ; THIS SOFTWARE, EVEN IF ADVISED OF THE POSSIBILITY OF SUCH DAMAGE.
    79                           ; 
    80                           ; 
    81                           ; Code-generator required, PIC16F877A Definitions
    82                           ; 
    83                           ; SFR Addresses
    84     0004                     fsr             equ	4
    85     0004                     fsr0            equ	4
    86     0000                     indf            equ	0
    87     0000                     indf0           equ	0
    88     0002                     pc              equ	2
    89     0002                     pcl             equ	2
    90     000A                     pclath          equ	10
    91     0003                     status          equ	3
    92     0000                     INDF            equ	0	;# 
    93     0001                     TMR0            equ	1	;# 
    94     0002                     PCL             equ	2	;# 
    95     0003                     STATUS          equ	3	;# 
    96     0004                     FSR             equ	4	;# 
    97     0005                     PORTA           equ	5	;# 
    98     0006                     PORTB           equ	6	;# 
    99     0007                     PORTC           equ	7	;# 
   100     0008                     PORTD           equ	8	;# 
   101     0009                     PORTE           equ	9	;# 
   102     000A                     PCLATH          equ	10	;# 
   103     000B                     INTCON          equ	11	;# 
   104     000C                     PIR1            equ	12	;# 
   105     000D                     PIR2            equ	13	;# 
   106     000E                     TMR1            equ	14	;# 
   107     000E                     TMR1L           equ	14	;# 
   108     000F                     TMR1H           equ	15	;# 
   109     0010                     T1CON           equ	16	;# 
   110     0011                     TMR2            equ	17	;# 
   111     0012                     T2CON           equ	18	;# 
   112     0013                     SSPBUF          equ	19	;# 
   113     0014                     SSPCON          equ	20	;# 
   114     0015                     CCPR1           equ	21	;# 
   115     0015                     CCPR1L          equ	21	;# 
   116     0016                     CCPR1H          equ	22	;# 
   117     0017                     CCP1CON         equ	23	;# 
   118     0018                     RCSTA           equ	24	;# 
   119     0019                     TXREG           equ	25	;# 
   120     001A                     RCREG           equ	26	;# 
   121     001B                     CCPR2           equ	27	;# 
   122     001B                     CCPR2L          equ	27	;# 
   123     001C                     CCPR2H          equ	28	;# 
   124     001D                     CCP2CON         equ	29	;# 
   125     001E                     ADRESH          equ	30	;# 
   126     001F                     ADCON0          equ	31	;# 
   127     0081                     OPTION_REG      equ	129	;# 
   128     0085                     TRISA           equ	133	;# 
   129     0086                     TRISB           equ	134	;# 
   130     0087                     TRISC           equ	135	;# 
   131     0088                     TRISD           equ	136	;# 
   132     0089                     TRISE           equ	137	;# 
   133     008C                     PIE1            equ	140	;# 
   134     008D                     PIE2            equ	141	;# 
   135     008E                     PCON            equ	142	;# 
   136     0091                     SSPCON2         equ	145	;# 
   137     0092                     PR2             equ	146	;# 
   138     0093                     SSPADD          equ	147	;# 
   139     0094                     SSPSTAT         equ	148	;# 
   140     0098                     TXSTA           equ	152	;# 
   141     0099                     SPBRG           equ	153	;# 
   142     009C                     CMCON           equ	156	;# 
   143     009D                     CVRCON          equ	157	;# 
   144     009E                     ADRESL          equ	158	;# 
   145     009F                     ADCON1          equ	159	;# 
   146     010C                     EEDATA          equ	268	;# 
   147     010D                     EEADR           equ	269	;# 
   148     010E                     EEDATH          equ	270	;# 
   149     010F                     EEADRH          equ	271	;# 
   150     018C                     EECON1          equ	396	;# 
   151     018D                     EECON2          equ	397	;# 
   152     0000                     INDF            equ	0	;# 
   153     0001                     TMR0            equ	1	;# 
   154     0002                     PCL             equ	2	;# 
   155     0003                     STATUS          equ	3	;# 
   156     0004                     FSR             equ	4	;# 
   157     0005                     PORTA           equ	5	;# 
   158     0006                     PORTB           equ	6	;# 
   159     0007                     PORTC           equ	7	;# 
   160     0008                     PORTD           equ	8	;# 
   161     0009                     PORTE           equ	9	;# 
   162     000A                     PCLATH          equ	10	;# 
   163     000B                     INTCON          equ	11	;# 
   164     000C                     PIR1            equ	12	;# 
   165     000D                     PIR2            equ	13	;# 
   166     000E                     TMR1            equ	14	;# 
   167     000E                     TMR1L           equ	14	;# 
   168     000F                     TMR1H           equ	15	;# 
   169     0010                     T1CON           equ	16	;# 
   170     0011                     TMR2            equ	17	;# 
   171     0012                     T2CON           equ	18	;# 
   172     0013                     SSPBUF          equ	19	;# 
   173     0014                     SSPCON          equ	20	;# 
   174     0015                     CCPR1           equ	21	;# 
   175     0015                     CCPR1L          equ	21	;# 
   176     0016                     CCPR1H          equ	22	;# 
   177     0017                     CCP1CON         equ	23	;# 
   178     0018                     RCSTA           equ	24	;# 
   179     0019                     TXREG           equ	25	;# 
   180     001A                     RCREG           equ	26	;# 
   181     001B                     CCPR2           equ	27	;# 
   182     001B                     CCPR2L          equ	27	;# 
   183     001C                     CCPR2H          equ	28	;# 
   184     001D                     CCP2CON         equ	29	;# 
   185     001E                     ADRESH          equ	30	;# 
   186     001F                     ADCON0          equ	31	;# 
   187     0081                     OPTION_REG      equ	129	;# 
   188     0085                     TRISA           equ	133	;# 
   189     0086                     TRISB           equ	134	;# 
   190     0087                     TRISC           equ	135	;# 
   191     0088                     TRISD           equ	136	;# 
   192     0089                     TRISE           equ	137	;# 
   193     008C                     PIE1            equ	140	;# 
   194     008D                     PIE2            equ	141	;# 
   195     008E                     PCON            equ	142	;# 
   196     0091                     SSPCON2         equ	145	;# 
   197     0092                     PR2             equ	146	;# 
   198     0093                     SSPADD          equ	147	;# 
   199     0094                     SSPSTAT         equ	148	;# 
   200     0098                     TXSTA           equ	152	;# 
   201     0099                     SPBRG           equ	153	;# 
   202     009C                     CMCON           equ	156	;# 
   203     009D                     CVRCON          equ	157	;# 
   204     009E                     ADRESL          equ	158	;# 
   205     009F                     ADCON1          equ	159	;# 
   206     010C                     EEDATA          equ	268	;# 
   207     010D                     EEADR           equ	269	;# 
   208     010E                     EEDATH          equ	270	;# 
   209     010F                     EEADRH          equ	271	;# 
   210     018C                     EECON1          equ	396	;# 
   211     018D                     EECON2          equ	397	;# 
   212     0000                     INDF            equ	0	;# 
   213     0001                     TMR0            equ	1	;# 
   214     0002                     PCL             equ	2	;# 
   215     0003                     STATUS          equ	3	;# 
   216     0004                     FSR             equ	4	;# 
   217     0005                     PORTA           equ	5	;# 
   218     0006                     PORTB           equ	6	;# 
   219     0007                     PORTC           equ	7	;# 
   220     0008                     PORTD           equ	8	;# 
   221     0009                     PORTE           equ	9	;# 
   222     000A                     PCLATH          equ	10	;# 
   223     000B                     INTCON          equ	11	;# 
   224     000C                     PIR1            equ	12	;# 
   225     000D                     PIR2            equ	13	;# 
   226     000E                     TMR1            equ	14	;# 
   227     000E                     TMR1L           equ	14	;# 
   228     000F                     TMR1H           equ	15	;# 
   229     0010                     T1CON           equ	16	;# 
   230     0011                     TMR2            equ	17	;# 
   231     0012                     T2CON           equ	18	;# 
   232     0013                     SSPBUF          equ	19	;# 
   233     0014                     SSPCON          equ	20	;# 
   234     0015                     CCPR1           equ	21	;# 
   235     0015                     CCPR1L          equ	21	;# 
   236     0016                     CCPR1H          equ	22	;# 
   237     0017                     CCP1CON         equ	23	;# 
   238     0018                     RCSTA           equ	24	;# 
   239     0019                     TXREG           equ	25	;# 
   240     001A                     RCREG           equ	26	;# 
   241     001B                     CCPR2           equ	27	;# 
   242     001B                     CCPR2L          equ	27	;# 
   243     001C                     CCPR2H          equ	28	;# 
   244     001D                     CCP2CON         equ	29	;# 
   245     001E                     ADRESH          equ	30	;# 
   246     001F                     ADCON0          equ	31	;# 
   247     0081                     OPTION_REG      equ	129	;# 
   248     0085                     TRISA           equ	133	;# 
   249     0086                     TRISB           equ	134	;# 
   250     0087                     TRISC           equ	135	;# 
   251     0088                     TRISD           equ	136	;# 
   252     0089                     TRISE           equ	137	;# 
   253     008C                     PIE1            equ	140	;# 
   254     008D                     PIE2            equ	141	;# 
   255     008E                     PCON            equ	142	;# 
   256     0091                     SSPCON2         equ	145	;# 
   257     0092                     PR2             equ	146	;# 
   258     0093                     SSPADD          equ	147	;# 
   259     0094                     SSPSTAT         equ	148	;# 
   260     0098                     TXSTA           equ	152	;# 
   261     0099                     SPBRG           equ	153	;# 
   262     009C                     CMCON           equ	156	;# 
   263     009D                     CVRCON          equ	157	;# 
   264     009E                     ADRESL          equ	158	;# 
   265     009F                     ADCON1          equ	159	;# 
   266     010C                     EEDATA          equ	268	;# 
   267     010D                     EEADR           equ	269	;# 
   268     010E                     EEDATH          equ	270	;# 
   269     010F                     EEADRH          equ	271	;# 
   270     018C                     EECON1          equ	396	;# 
   271     018D                     EECON2          equ	397	;# 
   272     0000                     INDF            equ	0	;# 
   273     0001                     TMR0            equ	1	;# 
   274     0002                     PCL             equ	2	;# 
   275     0003                     STATUS          equ	3	;# 
   276     0004                     FSR             equ	4	;# 
   277     0005                     PORTA           equ	5	;# 
   278     0006                     PORTB           equ	6	;# 
   279     0007                     PORTC           equ	7	;# 
   280     0008                     PORTD           equ	8	;# 
   281     0009                     PORTE           equ	9	;# 
   282     000A                     PCLATH          equ	10	;# 
   283     000B                     INTCON          equ	11	;# 
   284     000C                     PIR1            equ	12	;# 
   285     000D                     PIR2            equ	13	;# 
   286     000E                     TMR1            equ	14	;# 
   287     000E                     TMR1L           equ	14	;# 
   288     000F                     TMR1H           equ	15	;# 
   289     0010                     T1CON           equ	16	;# 
   290     0011                     TMR2            equ	17	;# 
   291     0012                     T2CON           equ	18	;# 
   292     0013                     SSPBUF          equ	19	;# 
   293     0014                     SSPCON          equ	20	;# 
   294     0015                     CCPR1           equ	21	;# 
   295     0015                     CCPR1L          equ	21	;# 
   296     0016                     CCPR1H          equ	22	;# 
   297     0017                     CCP1CON         equ	23	;# 
   298     0018                     RCSTA           equ	24	;# 
   299     0019                     TXREG           equ	25	;# 
   300     001A                     RCREG           equ	26	;# 
   301     001B                     CCPR2           equ	27	;# 
   302     001B                     CCPR2L          equ	27	;# 
   303     001C                     CCPR2H          equ	28	;# 
   304     001D                     CCP2CON         equ	29	;# 
   305     001E                     ADRESH          equ	30	;# 
   306     001F                     ADCON0          equ	31	;# 
   307     0081                     OPTION_REG      equ	129	;# 
   308     0085                     TRISA           equ	133	;# 
   309     0086                     TRISB           equ	134	;# 
   310     0087                     TRISC           equ	135	;# 
   311     0088                     TRISD           equ	136	;# 
   312     0089                     TRISE           equ	137	;# 
   313     008C                     PIE1            equ	140	;# 
   314     008D                     PIE2            equ	141	;# 
   315     008E                     PCON            equ	142	;# 
   316     0091                     SSPCON2         equ	145	;# 
   317     0092                     PR2             equ	146	;# 
   318     0093                     SSPADD          equ	147	;# 
   319     0094                     SSPSTAT         equ	148	;# 
   320     0098                     TXSTA           equ	152	;# 
   321     0099                     SPBRG           equ	153	;# 
   322     009C                     CMCON           equ	156	;# 
   323     009D                     CVRCON          equ	157	;# 
   324     009E                     ADRESL          equ	158	;# 
   325     009F                     ADCON1          equ	159	;# 
   326     010C                     EEDATA          equ	268	;# 
   327     010D                     EEADR           equ	269	;# 
   328     010E                     EEDATH          equ	270	;# 
   329     010F                     EEADRH          equ	271	;# 
   330     018C                     EECON1          equ	396	;# 
   331     018D                     EECON2          equ	397	;# 
   332     0000                     INDF            equ	0	;# 
   333     0001                     TMR0            equ	1	;# 
   334     0002                     PCL             equ	2	;# 
   335     0003                     STATUS          equ	3	;# 
   336     0004                     FSR             equ	4	;# 
   337     0005                     PORTA           equ	5	;# 
   338     0006                     PORTB           equ	6	;# 
   339     0007                     PORTC           equ	7	;# 
   340     0008                     PORTD           equ	8	;# 
   341     0009                     PORTE           equ	9	;# 
   342     000A                     PCLATH          equ	10	;# 
   343     000B                     INTCON          equ	11	;# 
   344     000C                     PIR1            equ	12	;# 
   345     000D                     PIR2            equ	13	;# 
   346     000E                     TMR1            equ	14	;# 
   347     000E                     TMR1L           equ	14	;# 
   348     000F                     TMR1H           equ	15	;# 
   349     0010                     T1CON           equ	16	;# 
   350     0011                     TMR2            equ	17	;# 
   351     0012                     T2CON           equ	18	;# 
   352     0013                     SSPBUF          equ	19	;# 
   353     0014                     SSPCON          equ	20	;# 
   354     0015                     CCPR1           equ	21	;# 
   355     0015                     CCPR1L          equ	21	;# 
   356     0016                     CCPR1H          equ	22	;# 
   357     0017                     CCP1CON         equ	23	;# 
   358     0018                     RCSTA           equ	24	;# 
   359     0019                     TXREG           equ	25	;# 
   360     001A                     RCREG           equ	26	;# 
   361     001B                     CCPR2           equ	27	;# 
   362     001B                     CCPR2L          equ	27	;# 
   363     001C                     CCPR2H          equ	28	;# 
   364     001D                     CCP2CON         equ	29	;# 
   365     001E                     ADRESH          equ	30	;# 
   366     001F                     ADCON0          equ	31	;# 
   367     0081                     OPTION_REG      equ	129	;# 
   368     0085                     TRISA           equ	133	;# 
   369     0086                     TRISB           equ	134	;# 
   370     0087                     TRISC           equ	135	;# 
   371     0088                     TRISD           equ	136	;# 
   372     0089                     TRISE           equ	137	;# 
   373     008C                     PIE1            equ	140	;# 
   374     008D                     PIE2            equ	141	;# 
   375     008E                     PCON            equ	142	;# 
   376     0091                     SSPCON2         equ	145	;# 
   377     0092                     PR2             equ	146	;# 
   378     0093                     SSPADD          equ	147	;# 
   379     0094                     SSPSTAT         equ	148	;# 
   380     0098                     TXSTA           equ	152	;# 
   381     0099                     SPBRG           equ	153	;# 
   382     009C                     CMCON           equ	156	;# 
   383     009D                     CVRCON          equ	157	;# 
   384     009E                     ADRESL          equ	158	;# 
   385     009F                     ADCON1          equ	159	;# 
   386     010C                     EEDATA          equ	268	;# 
   387     010D                     EEADR           equ	269	;# 
   388     010E                     EEDATH          equ	270	;# 
   389     010F                     EEADRH          equ	271	;# 
   390     018C                     EECON1          equ	396	;# 
   391     018D                     EECON2          equ	397	;# 
   392     0000                     INDF            equ	0	;# 
   393     0001                     TMR0            equ	1	;# 
   394     0002                     PCL             equ	2	;# 
   395     0003                     STATUS          equ	3	;# 
   396     0004                     FSR             equ	4	;# 
   397     0005                     PORTA           equ	5	;# 
   398     0006                     PORTB           equ	6	;# 
   399     0007                     PORTC           equ	7	;# 
   400     0008                     PORTD           equ	8	;# 
   401     0009                     PORTE           equ	9	;# 
   402     000A                     PCLATH          equ	10	;# 
   403     000B                     INTCON          equ	11	;# 
   404     000C                     PIR1            equ	12	;# 
   405     000D                     PIR2            equ	13	;# 
   406     000E                     TMR1            equ	14	;# 
   407     000E                     TMR1L           equ	14	;# 
   408     000F                     TMR1H           equ	15	;# 
   409     0010                     T1CON           equ	16	;# 
   410     0011                     TMR2            equ	17	;# 
   411     0012                     T2CON           equ	18	;# 
   412     0013                     SSPBUF          equ	19	;# 
   413     0014                     SSPCON          equ	20	;# 
   414     0015                     CCPR1           equ	21	;# 
   415     0015                     CCPR1L          equ	21	;# 
   416     0016                     CCPR1H          equ	22	;# 
   417     0017                     CCP1CON         equ	23	;# 
   418     0018                     RCSTA           equ	24	;# 
   419     0019                     TXREG           equ	25	;# 
   420     001A                     RCREG           equ	26	;# 
   421     001B                     CCPR2           equ	27	;# 
   422     001B                     CCPR2L          equ	27	;# 
   423     001C                     CCPR2H          equ	28	;# 
   424     001D                     CCP2CON         equ	29	;# 
   425     001E                     ADRESH          equ	30	;# 
   426     001F                     ADCON0          equ	31	;# 
   427     0081                     OPTION_REG      equ	129	;# 
   428     0085                     TRISA           equ	133	;# 
   429     0086                     TRISB           equ	134	;# 
   430     0087                     TRISC           equ	135	;# 
   431     0088                     TRISD           equ	136	;# 
   432     0089                     TRISE           equ	137	;# 
   433     008C                     PIE1            equ	140	;# 
   434     008D                     PIE2            equ	141	;# 
   435     008E                     PCON            equ	142	;# 
   436     0091                     SSPCON2         equ	145	;# 
   437     0092                     PR2             equ	146	;# 
   438     0093                     SSPADD          equ	147	;# 
   439     0094                     SSPSTAT         equ	148	;# 
   440     0098                     TXSTA           equ	152	;# 
   441     0099                     SPBRG           equ	153	;# 
   442     009C                     CMCON           equ	156	;# 
   443     009D                     CVRCON          equ	157	;# 
   444     009E                     ADRESL          equ	158	;# 
   445     009F                     ADCON1          equ	159	;# 
   446     010C                     EEDATA          equ	268	;# 
   447     010D                     EEADR           equ	269	;# 
   448     010E                     EEDATH          equ	270	;# 
   449     010F                     EEADRH          equ	271	;# 
   450     018C                     EECON1          equ	396	;# 
   451     018D                     EECON2          equ	397	;# 
   452     0000                     INDF            equ	0	;# 
   453     0001                     TMR0            equ	1	;# 
   454     0002                     PCL             equ	2	;# 
   455     0003                     STATUS          equ	3	;# 
   456     0004                     FSR             equ	4	;# 
   457     0005                     PORTA           equ	5	;# 
   458     0006                     PORTB           equ	6	;# 
   459     0007                     PORTC           equ	7	;# 
   460     0008                     PORTD           equ	8	;# 
   461     0009                     PORTE           equ	9	;# 
   462     000A                     PCLATH          equ	10	;# 
   463     000B                     INTCON          equ	11	;# 
   464     000C                     PIR1            equ	12	;# 
   465     000D                     PIR2            equ	13	;# 
   466     000E                     TMR1            equ	14	;# 
   467     000E                     TMR1L           equ	14	;# 
   468     000F                     TMR1H           equ	15	;# 
   469     0010                     T1CON           equ	16	;# 
   470     0011                     TMR2            equ	17	;# 
   471     0012                     T2CON           equ	18	;# 
   472     0013                     SSPBUF          equ	19	;# 
   473     0014                     SSPCON          equ	20	;# 
   474     0015                     CCPR1           equ	21	;# 
   475     0015                     CCPR1L          equ	21	;# 
   476     0016                     CCPR1H          equ	22	;# 
   477     0017                     CCP1CON         equ	23	;# 
   478     0018                     RCSTA           equ	24	;# 
   479     0019                     TXREG           equ	25	;# 
   480     001A                     RCREG           equ	26	;# 
   481     001B                     CCPR2           equ	27	;# 
   482     001B                     CCPR2L          equ	27	;# 
   483     001C                     CCPR2H          equ	28	;# 
   484     001D                     CCP2CON         equ	29	;# 
   485     001E                     ADRESH          equ	30	;# 
   486     001F                     ADCON0          equ	31	;# 
   487     0081                     OPTION_REG      equ	129	;# 
   488     0085                     TRISA           equ	133	;# 
   489     0086                     TRISB           equ	134	;# 
   490     0087                     TRISC           equ	135	;# 
   491     0088                     TRISD           equ	136	;# 
   492     0089                     TRISE           equ	137	;# 
   493     008C                     PIE1            equ	140	;# 
   494     008D                     PIE2            equ	141	;# 
   495     008E                     PCON            equ	142	;# 
   496     0091                     SSPCON2         equ	145	;# 
   497     0092                     PR2             equ	146	;# 
   498     0093                     SSPADD          equ	147	;# 
   499     0094                     SSPSTAT         equ	148	;# 
   500     0098                     TXSTA           equ	152	;# 
   501     0099                     SPBRG           equ	153	;# 
   502     009C                     CMCON           equ	156	;# 
   503     009D                     CVRCON          equ	157	;# 
   504     009E                     ADRESL          equ	158	;# 
   505     009F                     ADCON1          equ	159	;# 
   506     010C                     EEDATA          equ	268	;# 
   507     010D                     EEADR           equ	269	;# 
   508     010E                     EEDATH          equ	270	;# 
   509     010F                     EEADRH          equ	271	;# 
   510     018C                     EECON1          equ	396	;# 
   511     018D                     EECON2          equ	397	;# 
   512                           
   513                           	psect	idataCOMMON
   514     07FC                     __pidataCOMMON:
   515                           
   516                           ;initializer for read_digital_keypad@longpressed
   517     07FC  3401               	retlw	1
   518                           
   519                           ;initializer for read_digital_keypad@once
   520     07FD  3401               	retlw	1
   521                           
   522                           	psect	idataBANK0
   523     07FE                     __pidataBANK0:
   524                           
   525                           ;initializer for _operational_mode
   526     07FE  3401               	retlw	1
   527                           
   528                           ;initializer for _reset_flag
   529     07FF  3411               	retlw	17
   530                           
   531                           	psect	idataBANK1
   532     0800                     __pidataBANK1:
   533                           
   534                           ;initializer for _washing_programs
   535     0800  346B               	retlw	low (STR_7| (0+32768))
   536     0801  3491               	retlw	high (STR_7| (0+32768))
   537     0802  3471               	retlw	low (STR_8| (0+32768))
   538     0803  3491               	retlw	high (STR_8| (0+32768))
   539     0804  34F8               	retlw	low (STR_9| (0+32768))
   540     0805  3490               	retlw	high (STR_9| (0+32768))
   541     0806  3440               	retlw	low (STR_10| (0+32768))
   542     0807  3491               	retlw	high (STR_10| (0+32768))
   543     0808  34AE               	retlw	low (STR_11| (0+32768))
   544     0809  3490               	retlw	high (STR_11| (0+32768))
   545     080A  34B9               	retlw	low (STR_12| (0+32768))
   546     080B  3490               	retlw	high (STR_12| (0+32768))
   547     080C  3431               	retlw	low (STR_13| (0+32768))
   548     080D  3491               	retlw	high (STR_13| (0+32768))
   549     080E  34C4               	retlw	low (STR_14| (0+32768))
   550     080F  3490               	retlw	high (STR_14| (0+32768))
   551     0810  340C               	retlw	low (STR_15| (0+32768))
   552     0811  3491               	retlw	high (STR_15| (0+32768))
   553     0812  3420               	retlw	low (STR_16| (0+32768))
   554     0813  3491               	retlw	high (STR_16| (0+32768))
   555     0814  3402               	retlw	low (STR_17| (0+32768))
   556     0815  3491               	retlw	high (STR_17| (0+32768))
   557     0816  34A3               	retlw	low (STR_18| (0+32768))
   558     0817  3490               	retlw	high (STR_18| (0+32768))
   559                           
   560                           ;initializer for _water_level
   561     0818  347C               	retlw	low (STR_19| (0+32768))
   562     0819  3491               	retlw	high (STR_19| (0+32768))
   563     081A  3481               	retlw	low (STR_20| (0+32768))
   564     081B  3491               	retlw	high (STR_20| (0+32768))
   565     081C  3439               	retlw	low (STR_21| (0+32768))
   566     081D  3491               	retlw	high (STR_21| (0+32768))
   567     081E  3477               	retlw	low (STR_22| (0+32768))
   568     081F  3491               	retlw	high (STR_22| (0+32768))
   569     0820  3485               	retlw	low (STR_23| (0+32768))
   570     0821  3491               	retlw	high (STR_23| (0+32768))
   571     0006                     _PORTB          set	6
   572     0008                     _PORTD          set	8
   573     0061                     _TMR2IF         set	97
   574     0030                     _RB0            set	48
   575     0049                     _RE1            set	73
   576     004A                     _RE2            set	74
   577     0092                     _TMR2ON         set	146
   578     0034                     _RB4            set	52
   579     003A                     _RC2            set	58
   580     0039                     _RC1            set	57
   581     005E                     _PEIE           set	94
   582     005F                     _GIE            set	95
   583     0092                     _PR2            set	146
   584     0086                     _TRISB          set	134
   585     0088                     _TRISD          set	136
   586     0461                     _TMR2IE         set	1121
   587     0449                     _TRISE1         set	1097
   588     044A                     _TRISE2         set	1098
   589     043A                     _TRISC2         set	1082
   590     0439                     _TRISC1         set	1081
   591                           
   592                           	psect	strings
   593     1189                     __pstrings:
   594     1189                     stringtab:
   595     1189                     __stringtab:
   596                           
   597                           ;	String table - string pointers are 2 bytes each
   598     1189  1BFF               	btfsc	btemp+1,7
   599     118A  2993               	ljmp	stringcode
   600     118B  1383               	bcf	3,7
   601     118C  187F               	btfsc	btemp+1,0
   602     118D  1783               	bsf	3,7
   603     118E  0800               	movf	0,w
   604     118F  0A84               	incf	4,f
   605     1190  1903               	skipnz
   606     1191  0AFF               	incf	btemp+1,f
   607     1192  0008               	return
   608     1193                     stringcode:
   609     1193  087F               	movf	btemp+1,w
   610     1194  397F               	andlw	127
   611     1195  008A               	movwf	10
   612     1196  0804               	movf	4,w
   613     1197  0A84               	incf	4,f
   614     1198  1903               	skipnz
   615     1199  0AFF               	incf	btemp+1,f
   616     119A  0082               	movwf	2
   617     119B                     __stringbase:
   618     119B                     __end_of__stringtab:
   619                           
   620                           	psect	stringtext
   621     1000                     __pstringtext:
   622     1000                     STR_26:
   623     1000  3457               	retlw	87	;'W'
   624     1001  3461               	retlw	97	;'a'
   625     1002  3473               	retlw	115	;'s'
   626     1003  3468               	retlw	104	;'h'
   627     1004  3469               	retlw	105	;'i'
   628     1005  346E               	retlw	110	;'n'
   629     1006  3467               	retlw	103	;'g'
   630     1007  3420               	retlw	32	;' '
   631     1008  3450               	retlw	80	;'P'
   632     1009  3472               	retlw	114	;'r'
   633     100A  346F               	retlw	111	;'o'
   634     100B  3467               	retlw	103	;'g'
   635     100C  3472               	retlw	114	;'r'
   636     100D  3461               	retlw	97	;'a'
   637     100E  346D               	retlw	109	;'m'
   638     100F  343A               	retlw	58	;':'
   639     1010  3400               	retlw	0
   640     1011                     STR_25:
   641     1011  3457               	retlw	87	;'W'
   642     1012  3461               	retlw	97	;'a'
   643     1013  3473               	retlw	115	;'s'
   644     1014  3468               	retlw	104	;'h'
   645     1015  3469               	retlw	105	;'i'
   646     1016  346E               	retlw	110	;'n'
   647     1017  3467               	retlw	103	;'g'
   648     1018  3420               	retlw	32	;' '
   649     1019  3420               	retlw	32	;' '
   650     101A  346D               	retlw	109	;'m'
   651     101B  3461               	retlw	97	;'a'
   652     101C  3463               	retlw	99	;'c'
   653     101D  3468               	retlw	104	;'h'
   654     101E  3469               	retlw	105	;'i'
   655     101F  346E               	retlw	110	;'n'
   656     1020  3465               	retlw	101	;'e'
   657     1021  3400               	retlw	0
   658     1022                     STR_3:
   659     1022  3457               	retlw	87	;'W'
   660     1023  3441               	retlw	65	;'A'
   661     1024  3453               	retlw	83	;'S'
   662     1025  3448               	retlw	72	;'H'
   663     1026  3449               	retlw	73	;'I'
   664     1027  344E               	retlw	78	;'N'
   665     1028  3447               	retlw	71	;'G'
   666     1029  3420               	retlw	32	;' '
   667     102A  3420               	retlw	32	;' '
   668     102B  344D               	retlw	77	;'M'
   669     102C  3441               	retlw	65	;'A'
   670     102D  3443               	retlw	67	;'C'
   671     102E  3448               	retlw	72	;'H'
   672     102F  3449               	retlw	73	;'I'
   673     1030  344E               	retlw	78	;'N'
   674     1031  3445               	retlw	69	;'E'
   675     1032  3400               	retlw	0
   676     1033                     STR_44:
   677     1033  3454               	retlw	84	;'T'
   678     1034  3468               	retlw	104	;'h'
   679     1035  3465               	retlw	101	;'e'
   680     1036  3420               	retlw	32	;' '
   681     1037  3464               	retlw	100	;'d'
   682     1038  346F               	retlw	111	;'o'
   683     1039  346F               	retlw	111	;'o'
   684     103A  3472               	retlw	114	;'r'
   685     103B  3427               	retlw	39	;'''
   686     103C  3473               	retlw	115	;'s'
   687     103D  3420               	retlw	32	;' '
   688     103E  346F               	retlw	111	;'o'
   689     103F  3470               	retlw	112	;'p'
   690     1040  3465               	retlw	101	;'e'
   691     1041  346E               	retlw	110	;'n'
   692     1042  3400               	retlw	0
   693     1043                     STR_45:
   694     1043  3450               	retlw	80	;'P'
   695     1044  346C               	retlw	108	;'l'
   696     1045  3465               	retlw	101	;'e'
   697     1046  3461               	retlw	97	;'a'
   698     1047  3473               	retlw	115	;'s'
   699     1048  3465               	retlw	101	;'e'
   700     1049  3420               	retlw	32	;' '
   701     104A  3463               	retlw	99	;'c'
   702     104B  346C               	retlw	108	;'l'
   703     104C  346F               	retlw	111	;'o'
   704     104D  3473               	retlw	115	;'s'
   705     104E  3465               	retlw	101	;'e'
   706     104F  3420               	retlw	32	;' '
   707     1050  3449               	retlw	73	;'I'
   708     1051  3474               	retlw	116	;'t'
   709     1052  3400               	retlw	0
   710     1053                     STR_43:
   711     1053  3452               	retlw	82	;'R'
   712     1054  3465               	retlw	101	;'e'
   713     1055  346D               	retlw	109	;'m'
   714     1056  346F               	retlw	111	;'o'
   715     1057  3476               	retlw	118	;'v'
   716     1058  3465               	retlw	101	;'e'
   717     1059  3420               	retlw	32	;' '
   718     105A  3463               	retlw	99	;'c'
   719     105B  346C               	retlw	108	;'l'
   720     105C  346F               	retlw	111	;'o'
   721     105D  3474               	retlw	116	;'t'
   722     105E  3468               	retlw	104	;'h'
   723     105F  3465               	retlw	101	;'e'
   724     1060  3473               	retlw	115	;'s'
   725     1061  3400               	retlw	0
   726     1062                     STR_6:
   727     1062  3450               	retlw	80	;'P'
   728     1063  3452               	retlw	82	;'R'
   729     1064  3445               	retlw	69	;'E'
   730     1065  3453               	retlw	83	;'S'
   731     1066  3453               	retlw	83	;'S'
   732     1067  3420               	retlw	32	;' '
   733     1068  3453               	retlw	83	;'S'
   734     1069  3457               	retlw	87	;'W'
   735     106A  3449               	retlw	73	;'I'
   736     106B  3454               	retlw	84	;'T'
   737     106C  3443               	retlw	67	;'C'
   738     106D  3448               	retlw	72	;'H'
   739     106E  343A               	retlw	58	;':'
   740     106F  3400               	retlw	0
   741     1070                     STR_27:
   742     1070  3457               	retlw	87	;'W'
   743     1071  3441               	retlw	65	;'A'
   744     1072  3454               	retlw	84	;'T'
   745     1073  3445               	retlw	69	;'E'
   746     1074  3452               	retlw	82	;'R'
   747     1075  3420               	retlw	32	;' '
   748     1076  344C               	retlw	76	;'L'
   749     1077  3445               	retlw	69	;'E'
   750     1078  3456               	retlw	86	;'V'
   751     1079  3445               	retlw	69	;'E'
   752     107A  344C               	retlw	76	;'L'
   753     107B  343A               	retlw	58	;':'
   754     107C  3400               	retlw	0
   755     107D                     STR_2:
   756     107D  3450               	retlw	80	;'P'
   757     107E  346F               	retlw	111	;'o'
   758     107F  3477               	retlw	119	;'w'
   759     1080  3465               	retlw	101	;'e'
   760     1081  3472               	retlw	114	;'r'
   761     1082  3420               	retlw	32	;' '
   762     1083  346F               	retlw	111	;'o'
   763     1084  346E               	retlw	110	;'n'
   764     1085  3420               	retlw	32	;' '
   765     1086  3474               	retlw	116	;'t'
   766     1087  3468               	retlw	104	;'h'
   767     1088  3465               	retlw	101	;'e'
   768     1089  3400               	retlw	0
   769     108A                     STR_1:
   770     108A  3450               	retlw	80	;'P'
   771     108B  3472               	retlw	114	;'r'
   772     108C  3465               	retlw	101	;'e'
   773     108D  3473               	retlw	115	;'s'
   774     108E  3473               	retlw	115	;'s'
   775     108F  3420               	retlw	32	;' '
   776     1090  3452               	retlw	82	;'R'
   777     1091  3442               	retlw	66	;'B'
   778     1092  3434               	retlw	52	;'4'
   779     1093  3420               	retlw	32	;' '
   780     1094  3474               	retlw	116	;'t'
   781     1095  346F               	retlw	111	;'o'
   782     1096  3400               	retlw	0
   783     1097                     STR_24:
   784     1097  3450               	retlw	80	;'P'
   785     1098  346F               	retlw	111	;'o'
   786     1099  3477               	retlw	119	;'w'
   787     109A  3465               	retlw	101	;'e'
   788     109B  3472               	retlw	114	;'r'
   789     109C  3469               	retlw	105	;'i'
   790     109D  346E               	retlw	110	;'n'
   791     109E  3467               	retlw	103	;'g'
   792     109F  3420               	retlw	32	;' '
   793     10A0  346F               	retlw	111	;'o'
   794     10A1  346E               	retlw	110	;'n'
   795     10A2  3400               	retlw	0
   796     10A3                     STR_18:
   797     10A3  3441               	retlw	65	;'A'
   798     10A4  3471               	retlw	113	;'q'
   799     10A5  3475               	retlw	117	;'u'
   800     10A6  3461               	retlw	97	;'a'
   801     10A7  3420               	retlw	32	;' '
   802     10A8  3473               	retlw	115	;'s'
   803     10A9  3474               	retlw	116	;'t'
   804     10AA  346F               	retlw	111	;'o'
   805     10AB  3472               	retlw	114	;'r'
   806     10AC  3465               	retlw	101	;'e'
   807     10AD  3400               	retlw	0
   808     10AE                     STR_11:
   809     10AE  3453               	retlw	83	;'S'
   810     10AF  3474               	retlw	116	;'t'
   811     10B0  3461               	retlw	97	;'a'
   812     10B1  3469               	retlw	105	;'i'
   813     10B2  346E               	retlw	110	;'n'
   814     10B3  3420               	retlw	32	;' '
   815     10B4  3477               	retlw	119	;'w'
   816     10B5  3461               	retlw	97	;'a'
   817     10B6  3473               	retlw	115	;'s'
   818     10B7  3468               	retlw	104	;'h'
   819     10B8  3400               	retlw	0
   820     10B9                     STR_12:
   821     10B9  3445               	retlw	69	;'E'
   822     10BA  3463               	retlw	99	;'c'
   823     10BB  346F               	retlw	111	;'o'
   824     10BC  3463               	retlw	99	;'c'
   825     10BD  346F               	retlw	111	;'o'
   826     10BE  3474               	retlw	116	;'t'
   827     10BF  3474               	retlw	116	;'t'
   828     10C0  346F               	retlw	111	;'o'
   829     10C1  346E               	retlw	110	;'n'
   830     10C2  3473               	retlw	115	;'s'
   831     10C3  3400               	retlw	0
   832     10C4                     STR_14:
   833     10C4  3442               	retlw	66	;'B'
   834     10C5  3465               	retlw	101	;'e'
   835     10C6  3464               	retlw	100	;'d'
   836     10C7  3420               	retlw	32	;' '
   837     10C8  3473               	retlw	115	;'s'
   838     10C9  3468               	retlw	104	;'h'
   839     10CA  3465               	retlw	101	;'e'
   840     10CB  3465               	retlw	101	;'e'
   841     10CC  3474               	retlw	116	;'t'
   842     10CD  3473               	retlw	115	;'s'
   843     10CE  3400               	retlw	0
   844     10CF                     STR_4:
   845     10CF  3452               	retlw	82	;'R'
   846     10D0  3442               	retlw	66	;'B'
   847     10D1  3434               	retlw	52	;'4'
   848     10D2  343A               	retlw	58	;':'
   849     10D3  3420               	retlw	32	;' '
   850     10D4  3453               	retlw	83	;'S'
   851     10D5  3454               	retlw	84	;'T'
   852     10D6  3441               	retlw	65	;'A'
   853     10D7  3452               	retlw	82	;'R'
   854     10D8  3454               	retlw	84	;'T'
   855     10D9  3400               	retlw	0
   856     10DA                     STR_30:
   857     10DA  3446               	retlw	70	;'F'
   858     10DB  3475               	retlw	117	;'u'
   859     10DC  346E               	retlw	110	;'n'
   860     10DD  3463               	retlw	99	;'c'
   861     10DE  3474               	retlw	116	;'t'
   862     10DF  3469               	retlw	105	;'i'
   863     10E0  346F               	retlw	111	;'o'
   864     10E1  346E               	retlw	110	;'n'
   865     10E2  343A               	retlw	58	;':'
   866     10E3  3400               	retlw	0
   867     10E4                     STR_33:
   868     10E4  3452               	retlw	82	;'R'
   869     10E5  3442               	retlw	66	;'B'
   870     10E6  3435               	retlw	53	;'5'
   871     10E7  343A               	retlw	58	;':'
   872     10E8  3450               	retlw	80	;'P'
   873     10E9  3441               	retlw	65	;'A'
   874     10EA  3455               	retlw	85	;'U'
   875     10EB  3453               	retlw	83	;'S'
   876     10EC  3445               	retlw	69	;'E'
   877     10ED  3400               	retlw	0
   878     10EE                     STR_32:
   879     10EE  3452               	retlw	82	;'R'
   880     10EF  3442               	retlw	66	;'B'
   881     10F0  3434               	retlw	52	;'4'
   882     10F1  343A               	retlw	58	;':'
   883     10F2  3453               	retlw	83	;'S'
   884     10F3  3454               	retlw	84	;'T'
   885     10F4  3441               	retlw	65	;'A'
   886     10F5  3452               	retlw	82	;'R'
   887     10F6  3454               	retlw	84	;'T'
   888     10F7  3400               	retlw	0
   889     10F8                     STR_9:
   890     10F8  3444               	retlw	68	;'D'
   891     10F9  3465               	retlw	101	;'e'
   892     10FA  346C               	retlw	108	;'l'
   893     10FB  3469               	retlw	105	;'i'
   894     10FC  3463               	retlw	99	;'c'
   895     10FD  3461               	retlw	97	;'a'
   896     10FE  3474               	retlw	116	;'t'
   897     10FF  3465               	retlw	101	;'e'
   898     1100  3473               	retlw	115	;'s'
   899     1101  3400               	retlw	0
   900     1102                     STR_17:
   901     1102  3457               	retlw	87	;'W'
   902     1103  3461               	retlw	97	;'a'
   903     1104  3473               	retlw	115	;'s'
   904     1105  3468               	retlw	104	;'h'
   905     1106  3420               	retlw	32	;' '
   906     1107  346F               	retlw	111	;'o'
   907     1108  346E               	retlw	110	;'n'
   908     1109  346C               	retlw	108	;'l'
   909     110A  3479               	retlw	121	;'y'
   910     110B  3400               	retlw	0
   911     110C                     STR_15:
   912     110C  3452               	retlw	82	;'R'
   913     110D  3469               	retlw	105	;'i'
   914     110E  346E               	retlw	110	;'n'
   915     110F  3473               	retlw	115	;'s'
   916     1110  3465               	retlw	101	;'e'
   917     1111  342B               	retlw	43	;'+'
   918     1112  3444               	retlw	68	;'D'
   919     1113  3472               	retlw	114	;'r'
   920     1114  3479               	retlw	121	;'y'
   921     1115  3400               	retlw	0
   922     1116                     STR_5:
   923     1116  3452               	retlw	82	;'R'
   924     1117  3442               	retlw	66	;'B'
   925     1118  3435               	retlw	53	;'5'
   926     1119  343A               	retlw	58	;':'
   927     111A  3420               	retlw	32	;' '
   928     111B  3453               	retlw	83	;'S'
   929     111C  3454               	retlw	84	;'T'
   930     111D  344F               	retlw	79	;'O'
   931     111E  3450               	retlw	80	;'P'
   932     111F  3400               	retlw	0
   933     1120                     STR_16:
   934     1120  3444               	retlw	68	;'D'
   935     1121  3472               	retlw	114	;'r'
   936     1122  3479               	retlw	121	;'y'
   937     1123  3420               	retlw	32	;' '
   938     1124  346F               	retlw	111	;'o'
   939     1125  346E               	retlw	110	;'n'
   940     1126  346C               	retlw	108	;'l'
   941     1127  3479               	retlw	121	;'y'
   942     1128  3400               	retlw	0
   943     1129                     STR_42:
   944     1129  3444               	retlw	68	;'D'
   945     112A  346F               	retlw	111	;'o'
   946     112B  346E               	retlw	110	;'n'
   947     112C  3465               	retlw	101	;'e'
   948     112D  3420               	retlw	32	;' '
   949     112E  3421               	retlw	33	;'!'
   950     112F  3421               	retlw	33	;'!'
   951     1130  3400               	retlw	0
   952     1131                     STR_13:
   953     1131  3457               	retlw	87	;'W'
   954     1132  346F               	retlw	111	;'o'
   955     1133  346F               	retlw	111	;'o'
   956     1134  346C               	retlw	108	;'l'
   957     1135  3465               	retlw	101	;'e'
   958     1136  346E               	retlw	110	;'n'
   959     1137  3473               	retlw	115	;'s'
   960     1138  3400               	retlw	0
   961     1139                     STR_21:
   962     1139  344D               	retlw	77	;'M'
   963     113A  3465               	retlw	101	;'e'
   964     113B  3464               	retlw	100	;'d'
   965     113C  3469               	retlw	105	;'i'
   966     113D  3475               	retlw	117	;'u'
   967     113E  346D               	retlw	109	;'m'
   968     113F  3400               	retlw	0
   969     1140                     STR_10:
   970     1140  3457               	retlw	87	;'W'
   971     1141  3468               	retlw	104	;'h'
   972     1142  3469               	retlw	105	;'i'
   973     1143  3474               	retlw	116	;'t'
   974     1144  3465               	retlw	101	;'e'
   975     1145  3473               	retlw	115	;'s'
   976     1146  3400               	retlw	0
   977     1147                     STR_34:
   978     1147  3457               	retlw	87	;'W'
   979     1148  3441               	retlw	65	;'A'
   980     1149  3453               	retlw	83	;'S'
   981     114A  3448               	retlw	72	;'H'
   982     114B  3420               	retlw	32	;' '
   983     114C  3400               	retlw	0
   984     114D                     STR_36:
   985     114D  3453               	retlw	83	;'S'
   986     114E  3450               	retlw	80	;'P'
   987     114F  3449               	retlw	73	;'I'
   988     1150  344E               	retlw	78	;'N'
   989     1151  3420               	retlw	32	;' '
   990     1152  3400               	retlw	0
   991     1153                     STR_29:
   992     1153  3454               	retlw	84	;'T'
   993     1154  3449               	retlw	73	;'I'
   994     1155  344D               	retlw	77	;'M'
   995     1156  3445               	retlw	69	;'E'
   996     1157  343A               	retlw	58	;':'
   997     1158  3400               	retlw	0
   998     1159                     STR_28:
   999     1159  3450               	retlw	80	;'P'
  1000     115A  3452               	retlw	82	;'R'
  1001     115B  344F               	retlw	79	;'O'
  1002     115C  3447               	retlw	71	;'G'
  1003     115D  343A               	retlw	58	;':'
  1004     115E  3400               	retlw	0
  1005     115F                     STR_31:
  1006     115F  3454               	retlw	84	;'T'
  1007     1160  3469               	retlw	105	;'i'
  1008     1161  346D               	retlw	109	;'m'
  1009     1162  3465               	retlw	101	;'e'
  1010     1163  343A               	retlw	58	;':'
  1011     1164  3400               	retlw	0
  1012     1165                     STR_35:
  1013     1165  3452               	retlw	82	;'R'
  1014     1166  3449               	retlw	73	;'I'
  1015     1167  344E               	retlw	78	;'N'
  1016     1168  3453               	retlw	83	;'S'
  1017     1169  3445               	retlw	69	;'E'
  1018     116A  3400               	retlw	0
  1019     116B                     STR_7:
  1020     116B  3444               	retlw	68	;'D'
  1021     116C  3461               	retlw	97	;'a'
  1022     116D  3469               	retlw	105	;'i'
  1023     116E  346C               	retlw	108	;'l'
  1024     116F  3479               	retlw	121	;'y'
  1025     1170  3400               	retlw	0
  1026     1171                     STR_8:
  1027     1171  3448               	retlw	72	;'H'
  1028     1172  3465               	retlw	101	;'e'
  1029     1173  3461               	retlw	97	;'a'
  1030     1174  3476               	retlw	118	;'v'
  1031     1175  3479               	retlw	121	;'y'
  1032     1176  3400               	retlw	0
  1033     1177                     STR_22:
  1034     1177  3448               	retlw	72	;'H'
  1035     1178  3469               	retlw	105	;'i'
  1036     1179  3467               	retlw	103	;'g'
  1037     117A  3468               	retlw	104	;'h'
  1038     117B  3400               	retlw	0
  1039     117C                     STR_19:
  1040     117C  3441               	retlw	65	;'A'
  1041     117D  3475               	retlw	117	;'u'
  1042     117E  3474               	retlw	116	;'t'
  1043     117F  346F               	retlw	111	;'o'
  1044     1180  3400               	retlw	0
  1045     1181                     STR_20:
  1046     1181  344C               	retlw	76	;'L'
  1047     1182  346F               	retlw	111	;'o'
  1048     1183  3477               	retlw	119	;'w'
  1049     1184  3400               	retlw	0
  1050     1185                     STR_23:
  1051     1185  344D               	retlw	77	;'M'
  1052     1186  3461               	retlw	97	;'a'
  1053     1187  3478               	retlw	120	;'x'
  1054     1188  3400               	retlw	0
  1055     10EE                     STR_48          equ	STR_32
  1056     10E4                     STR_49          equ	STR_33
  1057     1165                     STR_37          equ	STR_35
  1058     1165                     STR_41          equ	STR_35
  1059     10DA                     STR_46          equ	STR_30
  1060     115F                     STR_47          equ	STR_31
  1061     114D                     STR_38          equ	STR_36
  1062     114D                     STR_39          equ	STR_36
  1063     1147                     STR_40          equ	STR_34
  1064                           
  1065                           	psect	cinit
  1066     000F                     start_initialization:	
  1067                           ; #config settings
  1068                           
  1069     000F                     __initialization:
  1070                           
  1071                           ; Initialize objects allocated to BANK1
  1072     000F  1383               	bcf	3,7	;select IRP bank0
  1073     0010  30C2               	movlw	low (__pdataBANK1+34)
  1074     0011  00FD               	movwf	btemp+-1
  1075     0012  3008               	movlw	high __pidataBANK1
  1076     0013  00FE               	movwf	btemp
  1077     0014  3000               	movlw	low __pidataBANK1
  1078     0015  00FF               	movwf	btemp+1
  1079     0016  30A0               	movlw	low __pdataBANK1
  1080     0017  0084               	movwf	4
  1081     0018  160A  118A  24B9  120A  118A  	fcall	init_ram0
  1082                           
  1083                           ; Initialize objects allocated to BANK0
  1084     001D  120A  118A  27FE  120A  118A  	fcall	__pidataBANK0	;fetch initializer
  1085     0022  00EE               	movwf	__pdataBANK0& (0+127)
  1086     0023  120A  118A  27FF  120A  118A  	fcall	__pidataBANK0+1	;fetch initializer
  1087     0028  00EF               	movwf	(__pdataBANK0+1)& (0+127)
  1088                           
  1089                           ; Initialize objects allocated to COMMON
  1090     0029  120A  118A  27FC  120A  118A  	fcall	__pidataCOMMON	;fetch initializer
  1091     002E  00FA               	movwf	__pdataCOMMON& (0+127)
  1092     002F  120A  118A  27FD  120A  118A  	fcall	__pidataCOMMON+1	;fetch initializer
  1093     0034  00FB               	movwf	(__pdataCOMMON+1)& (0+127)
  1094                           
  1095                           ; Clear objects allocated to BANK1
  1096     0035  1683               	bsf	3,5	;RP0=1, select bank1
  1097     0036  1303               	bcf	3,6	;RP1=0, select bank1
  1098     0037  01C2               	clrf	__pbssBANK1& (0+127)
  1099     0038  01C3               	clrf	(__pbssBANK1+1)& (0+127)
  1100     0039  01C4               	clrf	(__pbssBANK1+2)& (0+127)
  1101     003A  01C5               	clrf	(__pbssBANK1+3)& (0+127)
  1102     003B  01C6               	clrf	(__pbssBANK1+4)& (0+127)
  1103     003C  01C7               	clrf	(__pbssBANK1+5)& (0+127)
  1104     003D  01C8               	clrf	(__pbssBANK1+6)& (0+127)
  1105                           
  1106                           ; Clear objects allocated to BANK0
  1107     003E  1283               	bcf	3,5	;RP0=0, select bank0
  1108     003F  1303               	bcf	3,6	;RP1=0, select bank0
  1109     0040  01E6               	clrf	__pbssBANK0& (0+127)
  1110     0041  01E7               	clrf	(__pbssBANK0+1)& (0+127)
  1111     0042  01E8               	clrf	(__pbssBANK0+2)& (0+127)
  1112     0043  01E9               	clrf	(__pbssBANK0+3)& (0+127)
  1113     0044  01EA               	clrf	(__pbssBANK0+4)& (0+127)
  1114     0045  01EB               	clrf	(__pbssBANK0+5)& (0+127)
  1115     0046  01EC               	clrf	(__pbssBANK0+6)& (0+127)
  1116     0047  01ED               	clrf	(__pbssBANK0+7)& (0+127)
  1117     0048                     end_of_initialization:	
  1118                           ;End of C runtime variable initialization code
  1119                           
  1120     0048                     __end_of__initialization:
  1121     0048  0183               	clrf	3
  1122     0049  120A  158A  2B62   	ljmp	_main	;jump to C main() function
  1123                           
  1124                           	psect	dataCOMMON
  1125     007A                     __pdataCOMMON:
  1126     007A                     read_digital_keypad@longpressed:
  1127     007A                     	ds	1
  1128     007B                     read_digital_keypad@once:
  1129     007B                     	ds	1
  1130                           
  1131                           	psect	bssBANK0
  1132     0066                     __pbssBANK0:
  1133     0066                     _Time:
  1134     0066                     	ds	1
  1135     0067                     _Wash_time:
  1136     0067                     	ds	1
  1137     0068                     _Total_time:
  1138     0068                     	ds	1
  1139     0069                     _min:
  1140     0069                     	ds	1
  1141     006A                     _sec:
  1142     006A                     	ds	1
  1143     006B                     _level:
  1144     006B                     	ds	1
  1145     006C                     _program_index:
  1146     006C                     	ds	1
  1147     006D                     _key:
  1148     006D                     	ds	1
  1149                           
  1150                           	psect	dataBANK0
  1151     006E                     __pdataBANK0:
  1152     006E                     _operational_mode:
  1153     006E                     	ds	1
  1154     006F                     _reset_flag:
  1155     006F                     	ds	1
  1156                           
  1157                           	psect	bssBANK1
  1158     00C2                     __pbssBANK1:
  1159     00C2                     _count:
  1160     00C2                     	ds	4
  1161     00C6                     read_digital_keypad@pre_key:
  1162     00C6                     	ds	1
  1163     00C7                     _Spin_time:
  1164     00C7                     	ds	1
  1165     00C8                     _Rinse_time:
  1166     00C8                     	ds	1
  1167                           
  1168                           	psect	dataBANK1
  1169     00A0                     __pdataBANK1:
  1170     00A0                     _washing_programs:
  1171     00A0                     	ds	24
  1172     00B8                     _water_level:
  1173     00B8                     	ds	10
  1174                           
  1175                           	psect	inittext
  1176     14B5                     init_fetch0:	
  1177                           ;	Called with low address in FSR and high address in W
  1178                           
  1179     14B5  087E               	movf	btemp,w
  1180     14B6  008A               	movwf	10
  1181     14B7  087F               	movf	btemp+1,w
  1182     14B8  0082               	movwf	2
  1183     14B9                     init_ram0:	
  1184                           ;Called with:
  1185                           ;	high address of idata address in btemp 
  1186                           ;	low address of idata address in btemp+1 
  1187                           ;	low address of data in FSR
  1188                           ;	high address + 1 of data in btemp-1
  1189                           
  1190     14B9  160A  118A  24B5  160A  118A  	fcall	init_fetch0
  1191     14BE  0080               	movwf	0
  1192     14BF  0A84               	incf	4,f
  1193     14C0  0804               	movf	4,w
  1194     14C1  067D               	xorwf	btemp+-1,w
  1195     14C2  1903               	btfsc	3,2
  1196     14C3  3400               	retlw	0
  1197     14C4  0AFF               	incf	btemp+1,f
  1198     14C5  1903               	btfsc	3,2
  1199     14C6  0AFE               	incf	btemp,f
  1200     14C7  2CB9               	goto	init_ram0
  1201                           
  1202                           	psect	cstackCOMMON
  1203     0070                     __pcstackCOMMON:
  1204     0070                     ?_init_clcd:
  1205     0070                     ?_init_digital_keypad:	
  1206                           ; 1 bytes @ 0x0
  1207                           
  1208     0070                     ?_init_timer2:	
  1209                           ; 1 bytes @ 0x0
  1210                           
  1211     0070                     ?_read_digital_keypad:	
  1212                           ; 1 bytes @ 0x0
  1213                           
  1214     0070                     ?_clear_screen:	
  1215                           ; 1 bytes @ 0x0
  1216                           
  1217     0070                     ?_powering_on:	
  1218                           ; 1 bytes @ 0x0
  1219                           
  1220     0070                     ?_set_time:	
  1221                           ; 1 bytes @ 0x0
  1222                           
  1223     0070                     ?_washing_program_displaying:	
  1224                           ; 1 bytes @ 0x0
  1225                           
  1226     0070                     ?_water_lvl_screen_display:	
  1227                           ; 1 bytes @ 0x0
  1228                           
  1229     0070                     ?_run_program:	
  1230                           ; 1 bytes @ 0x0
  1231                           
  1232     0070                     ?_door_status_check:	
  1233                           ; 1 bytes @ 0x0
  1234                           
  1235     0070                     ?_init_config:	
  1236                           ; 1 bytes @ 0x0
  1237                           
  1238     0070                     ?_main:	
  1239                           ; 1 bytes @ 0x0
  1240                           
  1241     0070                     ?_init_display_controller:	
  1242                           ; 1 bytes @ 0x0
  1243                           
  1244     0070                     ?_isr:	
  1245                           ; 1 bytes @ 0x0
  1246                           
  1247     0070                     read_digital_keypad@mode:	
  1248                           ; 1 bytes @ 0x0
  1249                           
  1250     0070                     ??_isr:	
  1251                           ; 1 bytes @ 0x0
  1252                           
  1253                           
  1254                           ; 1 bytes @ 0x0
  1255     0070                     	ds	2
  1256     0072                     ?_clcd_write:
  1257     0072                     ?___bmul:	
  1258                           ; 1 bytes @ 0x2
  1259                           
  1260     0072                     ?__Umul8_16:	
  1261                           ; 1 bytes @ 0x2
  1262                           
  1263     0072                     ?___awdiv:	
  1264                           ; 2 bytes @ 0x2
  1265                           
  1266     0072                     ?___awmod:	
  1267                           ; 2 bytes @ 0x2
  1268                           
  1269     0072                     ?___fladd:	
  1270                           ; 2 bytes @ 0x2
  1271                           
  1272     0072                     ?___xxtofl:	
  1273                           ; 4 bytes @ 0x2
  1274                           
  1275     0072                     clcd_write@mode:	
  1276                           ; 4 bytes @ 0x2
  1277                           
  1278     0072                     read_digital_keypad@key:	
  1279                           ; 1 bytes @ 0x2
  1280                           
  1281     0072                     ___bmul@multiplicand:	
  1282                           ; 1 bytes @ 0x2
  1283                           
  1284     0072                     __Umul8_16@multiplicand:	
  1285                           ; 1 bytes @ 0x2
  1286                           
  1287     0072                     ___awdiv@divisor:	
  1288                           ; 1 bytes @ 0x2
  1289                           
  1290     0072                     ___awmod@divisor:	
  1291                           ; 2 bytes @ 0x2
  1292                           
  1293     0072                     ___fladd@b:	
  1294                           ; 2 bytes @ 0x2
  1295                           
  1296     0072                     ___xxtofl@val:	
  1297                           ; 4 bytes @ 0x2
  1298                           
  1299     0072                     ??_init_digital_keypad:	
  1300                           ; 4 bytes @ 0x2
  1301                           
  1302     0072                     ??_init_timer2:	
  1303                           ; 1 bytes @ 0x2
  1304                           
  1305     0072                     ??_read_digital_keypad:	
  1306                           ; 1 bytes @ 0x2
  1307                           
  1308     0072                     ??_set_time:	
  1309                           ; 1 bytes @ 0x2
  1310                           
  1311                           
  1312                           ; 1 bytes @ 0x2
  1313     0072                     	ds	1
  1314     0073                     ___bmul@product:
  1315     0073                     ??_clcd_write:	
  1316                           ; 1 bytes @ 0x3
  1317                           
  1318     0073                     ??___bmul:	
  1319                           ; 1 bytes @ 0x3
  1320                           
  1321                           
  1322                           ; 1 bytes @ 0x3
  1323     0073                     	ds	1
  1324     0074                     ___bmul@multiplier:
  1325     0074                     ___awdiv@dividend:	
  1326                           ; 1 bytes @ 0x4
  1327                           
  1328     0074                     ___awmod@dividend:	
  1329                           ; 2 bytes @ 0x4
  1330                           
  1331     0074                     ??__Umul8_16:	
  1332                           ; 2 bytes @ 0x4
  1333                           
  1334                           
  1335                           ; 1 bytes @ 0x4
  1336     0074                     	ds	1
  1337     0075                     clcd_write@byte:
  1338                           
  1339                           ; 1 bytes @ 0x5
  1340     0075                     	ds	1
  1341     0076                     ?_clcd_print:
  1342     0076                     ___awdiv@counter:	
  1343                           ; 1 bytes @ 0x6
  1344                           
  1345     0076                     ___awmod@counter:	
  1346                           ; 1 bytes @ 0x6
  1347                           
  1348     0076                     clcd_print@str:	
  1349                           ; 1 bytes @ 0x6
  1350                           
  1351     0076                     ___fladd@a:	
  1352                           ; 2 bytes @ 0x6
  1353                           
  1354     0076                     ??_clear_screen:	
  1355                           ; 4 bytes @ 0x6
  1356                           
  1357     0076                     ??_init_display_controller:	
  1358                           ; 1 bytes @ 0x6
  1359                           
  1360     0076                     ??___awdiv:	
  1361                           ; 1 bytes @ 0x6
  1362                           
  1363     0076                     ??___awmod:	
  1364                           ; 1 bytes @ 0x6
  1365                           
  1366     0076                     ??___xxtofl:	
  1367                           ; 1 bytes @ 0x6
  1368                           
  1369                           
  1370                           ; 1 bytes @ 0x6
  1371     0076                     	ds	1
  1372     0077                     ___awdiv@sign:
  1373     0077                     ___awmod@sign:	
  1374                           ; 1 bytes @ 0x7
  1375                           
  1376                           
  1377                           ; 1 bytes @ 0x7
  1378     0077                     	ds	1
  1379     0078                     clcd_print@addr:
  1380     0078                     ___awdiv@quotient:	
  1381                           ; 1 bytes @ 0x8
  1382                           
  1383     0078                     ??_init_clcd:	
  1384                           ; 2 bytes @ 0x8
  1385                           
  1386     0078                     ??_init_config:	
  1387                           ; 1 bytes @ 0x8
  1388                           
  1389                           
  1390                           ; 1 bytes @ 0x8
  1391     0078                     	ds	1
  1392     0079                     ??_clcd_print:
  1393     0079                     ??_door_status_check:	
  1394                           ; 1 bytes @ 0x9
  1395                           
  1396                           
  1397                           ; 1 bytes @ 0x9
  1398     0079                     	ds	1
  1399     007A                     ??_clcd_putch:
  1400     007A                     ??___flsub:	
  1401                           ; 1 bytes @ 0xA
  1402                           
  1403                           
  1404                           	psect	cstackBANK0
  1405     0020                     __pcstackBANK0:	
  1406                           ; 1 bytes @ 0xA
  1407                           
  1408     0020                     ?_clcd_putch:
  1409     0020                     clcd_putch@addr:	
  1410                           ; 1 bytes @ 0x0
  1411                           
  1412     0020                     ___xxtofl@sign:	
  1413                           ; 1 bytes @ 0x0
  1414                           
  1415     0020                     __Umul8_16@product:	
  1416                           ; 1 bytes @ 0x0
  1417                           
  1418     0020                     ??___fladd:	
  1419                           ; 2 bytes @ 0x0
  1420                           
  1421                           
  1422                           ; 1 bytes @ 0x0
  1423     0020                     	ds	1
  1424     0021                     clcd_putch@data:
  1425     0021                     ___xxtofl@exp:	
  1426                           ; 1 bytes @ 0x1
  1427                           
  1428                           
  1429                           ; 1 bytes @ 0x1
  1430     0021                     	ds	1
  1431     0022                     __Umul8_16@word_mpld:
  1432     0022                     ___xxtofl@arg:	
  1433                           ; 2 bytes @ 0x2
  1434                           
  1435     0022                     ??_powering_on:	
  1436                           ; 4 bytes @ 0x2
  1437                           
  1438     0022                     ??_washing_program_displaying:	
  1439                           ; 1 bytes @ 0x2
  1440                           
  1441     0022                     ??_water_lvl_screen_display:	
  1442                           ; 1 bytes @ 0x2
  1443                           
  1444                           
  1445                           ; 1 bytes @ 0x2
  1446     0022                     	ds	2
  1447     0024                     washing_program_displaying@key:
  1448     0024                     water_lvl_screen_display@key:	
  1449                           ; 1 bytes @ 0x4
  1450                           
  1451     0024                     __Umul8_16@multiplier:	
  1452                           ; 1 bytes @ 0x4
  1453                           
  1454                           
  1455                           ; 1 bytes @ 0x4
  1456     0024                     	ds	1
  1457     0025                     powering_on@i:
  1458                           
  1459                           ; 1 bytes @ 0x5
  1460     0025                     	ds	1
  1461     0026                     ?___flmul:
  1462     0026                     powering_on@i_173:	
  1463                           ; 4 bytes @ 0x6
  1464                           
  1465     0026                     ___flmul@b:	
  1466                           ; 1 bytes @ 0x6
  1467                           
  1468                           
  1469                           ; 4 bytes @ 0x6
  1470     0026                     	ds	2
  1471     0028                     ___fladd@signs:
  1472                           
  1473                           ; 1 bytes @ 0x8
  1474     0028                     	ds	1
  1475     0029                     ___fladd@aexp:
  1476                           
  1477                           ; 1 bytes @ 0x9
  1478     0029                     	ds	1
  1479     002A                     ___fladd@bexp:
  1480     002A                     ___flmul@a:	
  1481                           ; 1 bytes @ 0xA
  1482                           
  1483                           
  1484                           ; 4 bytes @ 0xA
  1485     002A                     	ds	1
  1486     002B                     ___fladd@grs:
  1487                           
  1488                           ; 1 bytes @ 0xB
  1489     002B                     	ds	3
  1490     002E                     ??___flmul:
  1491                           
  1492                           ; 1 bytes @ 0xE
  1493     002E                     	ds	5
  1494     0033                     ___flmul@sign:
  1495                           
  1496                           ; 1 bytes @ 0x13
  1497     0033                     	ds	1
  1498     0034                     ___flmul@aexp:
  1499                           
  1500                           ; 1 bytes @ 0x14
  1501     0034                     	ds	1
  1502     0035                     ___flmul@grs:
  1503                           
  1504                           ; 4 bytes @ 0x15
  1505     0035                     	ds	4
  1506     0039                     ___flmul@bexp:
  1507                           
  1508                           ; 1 bytes @ 0x19
  1509     0039                     	ds	1
  1510     003A                     ___flmul@prod:
  1511                           
  1512                           ; 4 bytes @ 0x1A
  1513     003A                     	ds	4
  1514     003E                     ___flmul@temp:
  1515                           
  1516                           ; 2 bytes @ 0x1E
  1517     003E                     	ds	2
  1518     0040                     ?___fltol:
  1519     0040                     ?___flsub:	
  1520                           ; 4 bytes @ 0x20
  1521                           
  1522     0040                     ___fltol@f1:	
  1523                           ; 4 bytes @ 0x20
  1524                           
  1525     0040                     ___flsub@a:	
  1526                           ; 4 bytes @ 0x20
  1527                           
  1528                           
  1529                           ; 4 bytes @ 0x20
  1530     0040                     	ds	4
  1531     0044                     ___flsub@b:
  1532     0044                     ??___fltol:	
  1533                           ; 4 bytes @ 0x24
  1534                           
  1535                           
  1536                           ; 1 bytes @ 0x24
  1537     0044                     	ds	4
  1538     0048                     ?___flge:
  1539     0048                     ___fltol@sign1:	
  1540                           ; 1 bit 
  1541                           
  1542     0048                     ___flge@ff1:	
  1543                           ; 1 bytes @ 0x28
  1544                           
  1545                           
  1546                           ; 4 bytes @ 0x28
  1547     0048                     	ds	1
  1548     0049                     ___fltol@exp1:
  1549                           
  1550                           ; 1 bytes @ 0x29
  1551     0049                     	ds	3
  1552     004C                     ___flge@ff2:
  1553                           
  1554                           ; 4 bytes @ 0x2C
  1555     004C                     	ds	4
  1556     0050                     ??___flge:
  1557                           
  1558                           ; 1 bytes @ 0x30
  1559     0050                     	ds	4
  1560     0054                     ??_run_program:
  1561                           
  1562                           ; 1 bytes @ 0x34
  1563     0054                     	ds	12
  1564     0060                     run_program@key:
  1565                           
  1566                           ; 1 bytes @ 0x40
  1567     0060                     	ds	1
  1568     0061                     ??_main:
  1569                           
  1570                           ; 1 bytes @ 0x41
  1571     0061                     	ds	3
  1572     0064                     main@delay:
  1573                           
  1574                           ; 2 bytes @ 0x44
  1575     0064                     	ds	2
  1576                           
  1577                           	psect	maintext
  1578     0B62                     __pmaintext:	
  1579 ;;
  1580 ;;Main: autosize = 0, tempsize = 3, incstack = 0, save=0
  1581 ;;
  1582 ;; *************** function _main *****************
  1583 ;; Defined at:
  1584 ;;		line 32 in file "main.c"
  1585 ;; Parameters:    Size  Location     Type
  1586 ;;		None
  1587 ;; Auto vars:     Size  Location     Type
  1588 ;;  delay           2   68[BANK0 ] int 
  1589 ;; Return value:  Size  Location     Type
  1590 ;;                  1    wreg      void 
  1591 ;; Registers used:
  1592 ;;		wreg, fsr0l, fsr0h, status,2, status,0, btemp+1, pclath, cstack
  1593 ;; Tracked objects:
  1594 ;;		On entry : B00/0
  1595 ;;		On exit  : 0/0
  1596 ;;		Unchanged: 0/0
  1597 ;; Data sizes:     COMMON   BANK0   BANK1   BANK3   BANK2
  1598 ;;      Params:         0       0       0       0       0
  1599 ;;      Locals:         0       2       0       0       0
  1600 ;;      Temps:          0       3       0       0       0
  1601 ;;      Totals:         0       5       0       0       0
  1602 ;;Total ram usage:        5 bytes
  1603 ;; Hardware stack levels required when called: 5
  1604 ;; This function calls:
  1605 ;;		_clcd_print
  1606 ;;		_clear_screen
  1607 ;;		_init_config
  1608 ;;		_powering_on
  1609 ;;		_read_digital_keypad
  1610 ;;		_run_program
  1611 ;;		_set_time
  1612 ;;		_washing_program_displaying
  1613 ;;		_water_lvl_screen_display
  1614 ;; This function is called by:
  1615 ;;		Startup code after reset
  1616 ;; This function uses a non-reentrant model
  1617 ;;
  1618                           
  1619     0B62                     _main:	
  1620                           ;psect for function _main
  1621                           
  1622     0B62                     l3646:	
  1623                           ;incstack = 0
  1624                           ; Regs used in _main: [wreg-fsr0h+status,2+status,0+btemp+1+pclath+cstack]
  1625                           
  1626                           
  1627                           ;main.c: 33:         _delay((unsigned long)((50)*(20000000/4000.0)));
  1628     0B62  120A  118A  27E2  120A  158A  	fcall	_init_config
  1629     0B67                     l3648:
  1630                           
  1631                           ;main.c: 35: 
  1632     0B67  308A               	movlw	low (STR_1| (0+32768))
  1633     0B68  00F6               	movwf	clcd_print@str
  1634     0B69  3090               	movlw	high (STR_1| (0+32768))
  1635     0B6A  00F7               	movwf	clcd_print@str+1
  1636     0B6B  3082               	movlw	130
  1637     0B6C  00F8               	movwf	clcd_print@addr
  1638     0B6D  160A  118A  254A  120A  158A  	fcall	_clcd_print
  1639     0B72                     l3650:
  1640                           
  1641                           ;main.c: 36:     clear_screen();
  1642     0B72  307D               	movlw	low (STR_2| (0+32768))
  1643     0B73  00F6               	movwf	clcd_print@str
  1644     0B74  3090               	movlw	high (STR_2| (0+32768))
  1645     0B75  00F7               	movwf	clcd_print@str+1
  1646     0B76  30C2               	movlw	194
  1647     0B77  00F8               	movwf	clcd_print@addr
  1648     0B78  160A  118A  254A  120A  158A  	fcall	_clcd_print
  1649     0B7D                     l3652:
  1650                           
  1651                           ;main.c: 37:     powering_on();
  1652     0B7D  3022               	movlw	low (STR_3| (0+32768))
  1653     0B7E  00F6               	movwf	clcd_print@str
  1654     0B7F  3090               	movlw	high (STR_3| (0+32768))
  1655     0B80  00F7               	movwf	clcd_print@str+1
  1656     0B81  3090               	movlw	144
  1657     0B82  00F8               	movwf	clcd_print@addr
  1658     0B83  160A  118A  254A  120A  158A  	fcall	_clcd_print
  1659     0B88                     l3654:
  1660                           
  1661                           ;main.c: 39:     while(1){
  1662     0B88  3001               	movlw	1
  1663     0B89  160A  118A  25C6  120A  158A  	fcall	_read_digital_keypad
  1664     0B8E  1283               	bcf	3,5	;RP0=0, select bank0
  1665     0B8F  1303               	bcf	3,6	;RP1=0, select bank0
  1666     0B90  00ED               	movwf	_key
  1667     0B91                     l3656:
  1668                           
  1669                           ;main.c: 40:         key = read_digital_keypad(1);
  1670     0B91  302F               	movlw	47
  1671     0B92  066D               	xorwf	_key,w
  1672     0B93  1D03               	btfss	3,2
  1673     0B94  2B96               	goto	u4601
  1674     0B95  2B97               	goto	u4600
  1675     0B96                     u4601:
  1676     0B96  2B98               	goto	l3660
  1677     0B97                     u4600:
  1678     0B97  2BA7               	goto	l3662
  1679     0B98                     l3660:
  1680                           
  1681                           ;main.c: 43:         {
  1682     0B98  3002               	movlw	2
  1683     0B99  1283               	bcf	3,5	;RP0=0, select bank0
  1684     0B9A  1303               	bcf	3,6	;RP1=0, select bank0
  1685     0B9B  00E3               	movwf	??_main+2
  1686     0B9C  3045               	movlw	69
  1687     0B9D  00E2               	movwf	??_main+1
  1688     0B9E  30A9               	movlw	169
  1689     0B9F  00E1               	movwf	??_main
  1690     0BA0                     u4707:
  1691     0BA0  0BE1               	decfsz	??_main,f
  1692     0BA1  2BA0               	goto	u4707
  1693     0BA2  0BE2               	decfsz	??_main+1,f
  1694     0BA3  2BA0               	goto	u4707
  1695     0BA4  0BE3               	decfsz	??_main+2,f
  1696     0BA5  2BA0               	goto	u4707
  1697     0BA6  2B88               	goto	l3654
  1698     0BA7                     l3662:
  1699                           
  1700                           ;main.c: 46:         }
  1701     0BA7  160A  118A  2491  120A  158A  	fcall	_clear_screen
  1702     0BAC                     l3664:
  1703                           
  1704                           ;main.c: 47:         else if(key == 0x99 && operational_mode == 0x02)
  1705     0BAC  120A  118A  2763  120A  158A  	fcall	_powering_on
  1706     0BB1                     l3666:
  1707                           
  1708                           ;main.c: 50:             clear_screen();
  1709     0BB1  3001               	movlw	1
  1710     0BB2  160A  118A  25C6  120A  158A  	fcall	_read_digital_keypad
  1711     0BB7  1283               	bcf	3,5	;RP0=0, select bank0
  1712     0BB8  1303               	bcf	3,6	;RP1=0, select bank0
  1713     0BB9  00ED               	movwf	_key
  1714     0BBA                     l3668:
  1715                           
  1716                           ;main.c: 51: 
  1717     0BBA  30F4               	movlw	244
  1718     0BBB  00E4               	movwf	main@delay
  1719     0BBC  3001               	movlw	1
  1720     0BBD  00E5               	movwf	main@delay+1
  1721     0BBE                     l3670:
  1722     0BBE  30FF               	movlw	255
  1723     0BBF  07E4               	addwf	main@delay,f
  1724     0BC0  1803               	skipnc
  1725     0BC1  0AE5               	incf	main@delay+1,f
  1726     0BC2  30FF               	movlw	255
  1727     0BC3  07E5               	addwf	main@delay+1,f
  1728     0BC4  0A64               	incf	main@delay,w
  1729     0BC5  1D03               	skipz
  1730     0BC6  2BCB               	goto	u4611
  1731     0BC7  0A65               	incf	main@delay+1,w
  1732     0BC8  1D03               	btfss	3,2
  1733     0BC9  2BCB               	goto	u4611
  1734     0BCA  2BCC               	goto	u4610
  1735     0BCB                     u4611:
  1736     0BCB  2BBE               	goto	l3670
  1737     0BCC                     u4610:
  1738     0BCC                     l3672:
  1739                           
  1740                           ;main.c: 52:             clcd_print("RB4: START",(0xC0 + 0));
  1741     0BCC  3099               	movlw	153
  1742     0BCD  066D               	xorwf	_key,w
  1743     0BCE  1D03               	btfss	3,2
  1744     0BCF  2BD1               	goto	u4621
  1745     0BD0  2BD2               	goto	u4620
  1746     0BD1                     u4621:
  1747     0BD1  2BDC               	goto	l3678
  1748     0BD2                     u4620:
  1749     0BD2                     l3674:
  1750     0BD2  036E               	decf	_operational_mode,w
  1751     0BD3  1D03               	btfss	3,2
  1752     0BD4  2BD6               	goto	u4631
  1753     0BD5  2BD7               	goto	u4630
  1754     0BD6                     u4631:
  1755     0BD6  2BDC               	goto	l3678
  1756     0BD7                     u4630:
  1757     0BD7                     l3676:
  1758                           
  1759                           ;main.c: 53:             clcd_print("RB5: STOP",(0x90 + 0));;main.c: 54:             set
      +                          _time();
  1760     0BD7  3002               	movlw	2
  1761     0BD8  00EE               	movwf	_operational_mode
  1762                           
  1763                           ;main.c: 55:         }
  1764     0BD9  3044               	movlw	68
  1765     0BDA  00EF               	movwf	_reset_flag
  1766                           
  1767                           ;main.c: 56:         else if ( RB4 == 0 && operational_mode == 0x77)
  1768     0BDB  2C53               	goto	l3714
  1769     0BDC                     l3678:
  1770     0BDC  3099               	movlw	153
  1771     0BDD  066D               	xorwf	_key,w
  1772     0BDE  1D03               	btfss	3,2
  1773     0BDF  2BE1               	goto	u4641
  1774     0BE0  2BE2               	goto	u4640
  1775     0BE1                     u4641:
  1776     0BE1  2C0B               	goto	l64
  1777     0BE2                     u4640:
  1778     0BE2                     l3680:
  1779     0BE2  3002               	movlw	2
  1780     0BE3  066E               	xorwf	_operational_mode,w
  1781     0BE4  1D03               	btfss	3,2
  1782     0BE5  2BE7               	goto	u4651
  1783     0BE6  2BE8               	goto	u4650
  1784     0BE7                     u4651:
  1785     0BE7  2C0B               	goto	l64
  1786     0BE8                     u4650:
  1787     0BE8                     l3682:
  1788                           
  1789                           ;main.c: 58: ;main.c: 59:             operational_mode = 0x04;
  1790     0BE8  3003               	movlw	3
  1791     0BE9  00EE               	movwf	_operational_mode
  1792     0BEA                     l3684:
  1793                           
  1794                           ;main.c: 60:             TMR2ON = 1 ;
  1795     0BEA  160A  118A  2491  120A  158A  	fcall	_clear_screen
  1796     0BEF                     l3686:
  1797                           
  1798                           ;main.c: 62:         }
  1799     0BEF  30CF               	movlw	low (STR_4| (0+32768))
  1800     0BF0  00F6               	movwf	clcd_print@str
  1801     0BF1  3090               	movlw	high (STR_4| (0+32768))
  1802     0BF2  00F7               	movwf	clcd_print@str+1
  1803     0BF3  30C0               	movlw	192
  1804     0BF4  00F8               	movwf	clcd_print@addr
  1805     0BF5  160A  118A  254A  120A  158A  	fcall	_clcd_print
  1806     0BFA                     l3688:
  1807                           
  1808                           ;main.c: 63:         switch(operational_mode)
  1809     0BFA  3016               	movlw	low (STR_5| (0+32768))
  1810     0BFB  00F6               	movwf	clcd_print@str
  1811     0BFC  3091               	movlw	high (STR_5| (0+32768))
  1812     0BFD  00F7               	movwf	clcd_print@str+1
  1813     0BFE  3090               	movlw	144
  1814     0BFF  00F8               	movwf	clcd_print@addr
  1815     0C00  160A  118A  254A  120A  158A  	fcall	_clcd_print
  1816     0C05                     l3690:
  1817                           
  1818                           ;main.c: 64:         {
  1819     0C05  120A  158A  2467  120A  158A  	fcall	_set_time
  1820                           
  1821                           ;main.c: 65:             case 0x01:
  1822     0C0A  2C53               	goto	l3714
  1823     0C0B                     l64:	
  1824                           ;main.c: 66:                 washing_program_displaying(key);
  1825                           
  1826     0C0B  1A06               	btfsc	6,4	;volatile
  1827     0C0C  2C0E               	goto	u4661
  1828     0C0D  2C0F               	goto	u4660
  1829     0C0E                     u4661:
  1830     0C0E  2C1A               	goto	l63
  1831     0C0F                     u4660:
  1832     0C0F                     l3692:
  1833     0C0F  3077               	movlw	119
  1834     0C10  066E               	xorwf	_operational_mode,w
  1835     0C11  1D03               	btfss	3,2
  1836     0C12  2C14               	goto	u4671
  1837     0C13  2C15               	goto	u4670
  1838     0C14                     u4671:
  1839     0C14  2C1A               	goto	l63
  1840     0C15                     u4670:
  1841     0C15                     l3694:
  1842                           
  1843                           ;main.c: 67:                 break;;main.c: 69:                 water_lvl_screen_display
      +                          (key);
  1844     0C15  3004               	movlw	4
  1845     0C16  00EE               	movwf	_operational_mode
  1846                           
  1847                           ;main.c: 70:                 break;
  1848     0C17  1512               	bsf	18,2	;volatile
  1849                           
  1850                           ;main.c: 71:             case 0x03:
  1851     0C18  1507               	bsf	7,2	;volatile
  1852     0C19  2C53               	goto	l3714
  1853     0C1A                     l63:
  1854                           
  1855                           ;main.c: 73:                 clcd_print("PRESS SWITCH:",(0x80 + 0));
  1856     0C1A  2C53               	goto	l3714
  1857     0C1B                     l3696:
  1858                           
  1859                           ;main.c: 76:                     reset_flag = 0x55;
  1860     0C1B  086D               	movf	_key,w
  1861     0C1C  120A  158A  217C  120A  158A  	fcall	_washing_program_displaying
  1862                           
  1863                           ;main.c: 77: 
  1864     0C21  2BB1               	goto	l3666
  1865     0C22                     l3698:
  1866                           
  1867                           ;main.c: 79:                 else if (key == 0x1F) {
  1868     0C22  086D               	movf	_key,w
  1869     0C23  120A  158A  226F  120A  158A  	fcall	_water_lvl_screen_display
  1870                           
  1871                           ;main.c: 80:                     operational_mode = 0x01;
  1872     0C28  2BB1               	goto	l3666
  1873     0C29                     l3700:
  1874                           
  1875                           ;main.c: 82:                 };main.c: 83:             }
  1876     0C29  3062               	movlw	low (STR_6| (0+32768))
  1877     0C2A  00F6               	movwf	clcd_print@str
  1878     0C2B  3090               	movlw	high (STR_6| (0+32768))
  1879     0C2C  00F7               	movwf	clcd_print@str+1
  1880     0C2D  3080               	movlw	128
  1881     0C2E  00F8               	movwf	clcd_print@addr
  1882     0C2F  160A  118A  254A  120A  158A  	fcall	_clcd_print
  1883     0C34                     l3702:
  1884                           
  1885                           ;main.c: 84:                 break;
  1886     0C34  302F               	movlw	47
  1887     0C35  1283               	bcf	3,5	;RP0=0, select bank0
  1888     0C36  1303               	bcf	3,6	;RP1=0, select bank0
  1889     0C37  066D               	xorwf	_key,w
  1890     0C38  1D03               	btfss	3,2
  1891     0C39  2C3B               	goto	u4681
  1892     0C3A  2C3C               	goto	u4680
  1893     0C3B                     u4681:
  1894     0C3B  2C41               	goto	l3706
  1895     0C3C                     u4680:
  1896     0C3C                     l3704:
  1897                           
  1898                           ;main.c: 85:             case 0x04:
  1899     0C3C  3004               	movlw	4
  1900     0C3D  00EE               	movwf	_operational_mode
  1901                           
  1902                           ;main.c: 86:                 run_program(key);
  1903     0C3E  3055               	movlw	85
  1904     0C3F  00EF               	movwf	_reset_flag
  1905                           
  1906                           ;main.c: 88:         }
  1907     0C40  2BB1               	goto	l3666
  1908     0C41                     l3706:
  1909     0C41  301F               	movlw	31
  1910     0C42  066D               	xorwf	_key,w
  1911     0C43  1D03               	btfss	3,2
  1912     0C44  2C46               	goto	u4691
  1913     0C45  2C47               	goto	u4690
  1914     0C46                     u4691:
  1915     0C46  2C63               	goto	l69
  1916     0C47                     u4690:
  1917     0C47                     l3708:
  1918                           
  1919                           ;main.c: 90: 
  1920     0C47  3001               	movlw	1
  1921     0C48  00EE               	movwf	_operational_mode
  1922                           
  1923                           ;main.c: 91:     }
  1924     0C49  3011               	movlw	17
  1925     0C4A  00EF               	movwf	_reset_flag
  1926     0C4B  2BB1               	goto	l3666
  1927     0C4C                     l3710:
  1928     0C4C  086D               	movf	_key,w
  1929     0C4D  120A  118A  204C  120A  158A  	fcall	_run_program
  1930     0C52  2BB1               	goto	l3666
  1931     0C53                     l3714:
  1932     0C53  1283               	bcf	3,5	;RP0=0, select bank0
  1933     0C54  1303               	bcf	3,6	;RP1=0, select bank0
  1934     0C55  086E               	movf	_operational_mode,w
  1935                           
  1936                           ; Switch size 1, requested type "simple"
  1937                           ; Number of cases is 4, Range of values is 1 to 4
  1938                           ; switch strategies available:
  1939                           ; Name         Instructions Cycles
  1940                           ; simple_byte           13     7 (average)
  1941                           ; direct_byte           23    11 (fixed)
  1942                           ; jumptable            263     9 (fixed)
  1943                           ;	Chosen strategy is simple_byte
  1944     0C56  3A01               	xorlw	1	; case 1
  1945     0C57  1903               	skipnz
  1946     0C58  2C1B               	goto	l3696
  1947     0C59  3A03               	xorlw	3	; case 2
  1948     0C5A  1903               	skipnz
  1949     0C5B  2C22               	goto	l3698
  1950     0C5C  3A01               	xorlw	1	; case 3
  1951     0C5D  1903               	skipnz
  1952     0C5E  2C29               	goto	l3700
  1953     0C5F  3A07               	xorlw	7	; case 4
  1954     0C60  1903               	skipnz
  1955     0C61  2C4C               	goto	l3710
  1956     0C62  2BB1               	goto	l3666
  1957     0C63                     l69:
  1958     0C63  2BB1               	goto	l3666
  1959     0C64  120A  118A  280C   	ljmp	start
  1960     0C67                     __end_of_main:
  1961                           
  1962                           	psect	text1
  1963     0A6F                     __ptext1:	
  1964 ;; *************** function _water_lvl_screen_display *****************
  1965 ;; Defined at:
  1966 ;;		line 69 in file "WASHING_MACH_func.c"
  1967 ;; Parameters:    Size  Location     Type
  1968 ;;  key             1    wreg     unsigned char 
  1969 ;; Auto vars:     Size  Location     Type
  1970 ;;  key             1    4[BANK0 ] unsigned char 
  1971 ;; Return value:  Size  Location     Type
  1972 ;;                  1    wreg      void 
  1973 ;; Registers used:
  1974 ;;		wreg, fsr0l, fsr0h, status,2, status,0, btemp+1, pclath, cstack
  1975 ;; Tracked objects:
  1976 ;;		On entry : 0/0
  1977 ;;		On exit  : 0/0
  1978 ;;		Unchanged: 0/0
  1979 ;; Data sizes:     COMMON   BANK0   BANK1   BANK3   BANK2
  1980 ;;      Params:         0       0       0       0       0
  1981 ;;      Locals:         0       1       0       0       0
  1982 ;;      Temps:          0       2       0       0       0
  1983 ;;      Totals:         0       3       0       0       0
  1984 ;;Total ram usage:        3 bytes
  1985 ;; Hardware stack levels used: 1
  1986 ;; Hardware stack levels required when called: 3
  1987 ;; This function calls:
  1988 ;;		_clcd_print
  1989 ;;		_clcd_putch
  1990 ;;		_clear_screen
  1991 ;; This function is called by:
  1992 ;;		_main
  1993 ;; This function uses a non-reentrant model
  1994 ;;
  1995                           
  1996     0A6F                     _water_lvl_screen_display:	
  1997                           ;psect for function _water_lvl_screen_display
  1998                           
  1999                           
  2000                           ;incstack = 0
  2001                           ; Regs used in _water_lvl_screen_display: [wreg-fsr0h+status,2+status,0+btemp+1+pclath+c
      +                          stack]
  2002                           ;water_lvl_screen_display@key stored from wreg
  2003     0A6F  1283               	bcf	3,5	;RP0=0, select bank0
  2004     0A70  1303               	bcf	3,6	;RP1=0, select bank0
  2005     0A71  00A4               	movwf	water_lvl_screen_display@key
  2006     0A72                     l3494:
  2007                           
  2008                           ;WASHING_MACH_func.c: 70:     if(reset_flag == 0x44){
  2009     0A72  3044               	movlw	68
  2010     0A73  066F               	xorwf	_reset_flag,w
  2011     0A74  1D03               	btfss	3,2
  2012     0A75  2A77               	goto	u4421
  2013     0A76  2A78               	goto	u4420
  2014     0A77                     u4421:
  2015     0A77  2A81               	goto	l3500
  2016     0A78                     u4420:
  2017     0A78                     l3496:
  2018                           
  2019                           ;WASHING_MACH_func.c: 71:         clear_screen();
  2020     0A78  160A  118A  2491  120A  158A  	fcall	_clear_screen
  2021     0A7D                     l3498:
  2022                           
  2023                           ;WASHING_MACH_func.c: 72:         reset_flag = 0x88;
  2024     0A7D  3088               	movlw	136
  2025     0A7E  1283               	bcf	3,5	;RP0=0, select bank0
  2026     0A7F  1303               	bcf	3,6	;RP1=0, select bank0
  2027     0A80  00EF               	movwf	_reset_flag
  2028     0A81                     l3500:
  2029                           
  2030                           ;WASHING_MACH_func.c: 75:     if(key == 0x37){
  2031     0A81  3037               	movlw	55
  2032     0A82  0624               	xorwf	water_lvl_screen_display@key,w
  2033     0A83  1D03               	btfss	3,2
  2034     0A84  2A86               	goto	u4431
  2035     0A85  2A87               	goto	u4430
  2036     0A86                     u4431:
  2037     0A86  2A97               	goto	l3510
  2038     0A87                     u4430:
  2039     0A87                     l3502:
  2040                           
  2041                           ;WASHING_MACH_func.c: 76:         clear_screen();
  2042     0A87  160A  118A  2491  120A  158A  	fcall	_clear_screen
  2043     0A8C                     l3504:
  2044                           
  2045                           ;WASHING_MACH_func.c: 77:         level ++;
  2046     0A8C  3001               	movlw	1
  2047     0A8D  1283               	bcf	3,5	;RP0=0, select bank0
  2048     0A8E  1303               	bcf	3,6	;RP1=0, select bank0
  2049     0A8F  07EB               	addwf	_level,f
  2050     0A90                     l3506:
  2051                           
  2052                           ;WASHING_MACH_func.c: 78:         if(level == 5 ){
  2053     0A90  3005               	movlw	5
  2054     0A91  066B               	xorwf	_level,w
  2055     0A92  1D03               	btfss	3,2
  2056     0A93  2A95               	goto	u4441
  2057     0A94  2A96               	goto	u4440
  2058     0A95                     u4441:
  2059     0A95  2A97               	goto	l3510
  2060     0A96                     u4440:
  2061     0A96                     l3508:
  2062                           
  2063                           ;WASHING_MACH_func.c: 79:             level = 0;
  2064     0A96  01EB               	clrf	_level
  2065     0A97                     l3510:
  2066                           
  2067                           ;WASHING_MACH_func.c: 82:     clcd_print("WATER LEVEL:",(0x80 + 0));
  2068     0A97  3070               	movlw	low (STR_27| (0+32768))
  2069     0A98  00F6               	movwf	clcd_print@str
  2070     0A99  3090               	movlw	high (STR_27| (0+32768))
  2071     0A9A  00F7               	movwf	clcd_print@str+1
  2072     0A9B  3080               	movlw	128
  2073     0A9C  00F8               	movwf	clcd_print@addr
  2074     0A9D  160A  118A  254A  120A  158A  	fcall	_clcd_print
  2075     0AA2                     l3512:
  2076                           
  2077                           ;WASHING_MACH_func.c: 83:     clcd_putch('*',(0xC0 + 0));
  2078     0AA2  30C0               	movlw	192
  2079     0AA3  1283               	bcf	3,5	;RP0=0, select bank0
  2080     0AA4  1303               	bcf	3,6	;RP1=0, select bank0
  2081     0AA5  00A0               	movwf	clcd_putch@addr
  2082     0AA6  302A               	movlw	42
  2083     0AA7  160A  118A  24C8  120A  158A  	fcall	_clcd_putch
  2084     0AAC                     l3514:
  2085                           
  2086                           ;WASHING_MACH_func.c: 84:     if(level <= 2){
  2087     0AAC  3003               	movlw	3
  2088     0AAD  1283               	bcf	3,5	;RP0=0, select bank0
  2089     0AAE  1303               	bcf	3,6	;RP1=0, select bank0
  2090     0AAF  026B               	subwf	_level,w
  2091     0AB0  1803               	skipnc
  2092     0AB1  2AB3               	goto	u4451
  2093     0AB2  2AB4               	goto	u4450
  2094     0AB3                     u4451:
  2095     0AB3  2AF2               	goto	l3518
  2096     0AB4                     u4450:
  2097     0AB4                     l3516:
  2098                           
  2099                           ;WASHING_MACH_func.c: 85:     clcd_print(water_level[level],(0xC0 + 1));
  2100     0AB4  086B               	movf	_level,w
  2101     0AB5  00A2               	movwf	??_water_lvl_screen_display
  2102     0AB6  0722               	addwf	??_water_lvl_screen_display,w
  2103     0AB7  3EB8               	addlw	(low (_water_level| 0))& (0+255)
  2104     0AB8  0084               	movwf	4
  2105     0AB9  1383               	bcf	3,7	;select IRP bank1
  2106     0ABA  0800               	movf	0,w
  2107     0ABB  00F6               	movwf	clcd_print@str
  2108     0ABC  0A84               	incf	4,f
  2109     0ABD  0800               	movf	0,w
  2110     0ABE  0384               	decf	4,f
  2111     0ABF  00F7               	movwf	clcd_print@str+1
  2112     0AC0  30C1               	movlw	193
  2113     0AC1  00F8               	movwf	clcd_print@addr
  2114     0AC2  160A  118A  254A  120A  158A  	fcall	_clcd_print
  2115                           
  2116                           ;WASHING_MACH_func.c: 86:     clcd_print(water_level[level+1],(0x90 + 1));
  2117     0AC7  1283               	bcf	3,5	;RP0=0, select bank0
  2118     0AC8  1303               	bcf	3,6	;RP1=0, select bank0
  2119     0AC9  086B               	movf	_level,w
  2120     0ACA  00A2               	movwf	??_water_lvl_screen_display
  2121     0ACB  0722               	addwf	??_water_lvl_screen_display,w
  2122     0ACC  3EBA               	addlw	(low ((_water_level| 0+2)))& (0+255)
  2123     0ACD  0084               	movwf	4
  2124     0ACE  1383               	bcf	3,7	;select IRP bank1
  2125     0ACF  0800               	movf	0,w
  2126     0AD0  00F6               	movwf	clcd_print@str
  2127     0AD1  0A84               	incf	4,f
  2128     0AD2  0800               	movf	0,w
  2129     0AD3  0384               	decf	4,f
  2130     0AD4  00F7               	movwf	clcd_print@str+1
  2131     0AD5  3091               	movlw	145
  2132     0AD6  00F8               	movwf	clcd_print@addr
  2133     0AD7  160A  118A  254A  120A  158A  	fcall	_clcd_print
  2134                           
  2135                           ;WASHING_MACH_func.c: 87:     clcd_print(water_level[level+2],(0xD0 + 1));
  2136     0ADC  1283               	bcf	3,5	;RP0=0, select bank0
  2137     0ADD  1303               	bcf	3,6	;RP1=0, select bank0
  2138     0ADE  086B               	movf	_level,w
  2139     0ADF  00A2               	movwf	??_water_lvl_screen_display
  2140     0AE0  0722               	addwf	??_water_lvl_screen_display,w
  2141     0AE1  3EBC               	addlw	(low ((_water_level| 0+4)))& (0+255)
  2142     0AE2  0084               	movwf	4
  2143     0AE3  1383               	bcf	3,7	;select IRP bank1
  2144     0AE4  0800               	movf	0,w
  2145     0AE5  00F6               	movwf	clcd_print@str
  2146     0AE6  0A84               	incf	4,f
  2147     0AE7  0800               	movf	0,w
  2148     0AE8  0384               	decf	4,f
  2149     0AE9  00F7               	movwf	clcd_print@str+1
  2150     0AEA  30D1               	movlw	209
  2151     0AEB  00F8               	movwf	clcd_print@addr
  2152     0AEC  160A  118A  254A  120A  158A  	fcall	_clcd_print
  2153                           
  2154                           ;WASHING_MACH_func.c: 88:     }
  2155     0AF1  2B61               	goto	l185
  2156     0AF2                     l3518:
  2157     0AF2  3003               	movlw	3
  2158     0AF3  066B               	xorwf	_level,w
  2159     0AF4  1D03               	btfss	3,2
  2160     0AF5  2AF7               	goto	u4461
  2161     0AF6  2AF8               	goto	u4460
  2162     0AF7                     u4461:
  2163     0AF7  2B2E               	goto	l3522
  2164     0AF8                     u4460:
  2165     0AF8                     l3520:
  2166                           
  2167                           ;WASHING_MACH_func.c: 90:         clcd_print(water_level[level], (0xC0 + 1));
  2168     0AF8  086B               	movf	_level,w
  2169     0AF9  00A2               	movwf	??_water_lvl_screen_display
  2170     0AFA  0722               	addwf	??_water_lvl_screen_display,w
  2171     0AFB  3EB8               	addlw	(low (_water_level| 0))& (0+255)
  2172     0AFC  0084               	movwf	4
  2173     0AFD  1383               	bcf	3,7	;select IRP bank1
  2174     0AFE  0800               	movf	0,w
  2175     0AFF  00F6               	movwf	clcd_print@str
  2176     0B00  0A84               	incf	4,f
  2177     0B01  0800               	movf	0,w
  2178     0B02  0384               	decf	4,f
  2179     0B03  00F7               	movwf	clcd_print@str+1
  2180     0B04  30C1               	movlw	193
  2181     0B05  00F8               	movwf	clcd_print@addr
  2182     0B06  160A  118A  254A  120A  158A  	fcall	_clcd_print
  2183                           
  2184                           ;WASHING_MACH_func.c: 91:         clcd_print(water_level[level+1], (0x90 + 1));
  2185     0B0B  1283               	bcf	3,5	;RP0=0, select bank0
  2186     0B0C  1303               	bcf	3,6	;RP1=0, select bank0
  2187     0B0D  086B               	movf	_level,w
  2188     0B0E  00A2               	movwf	??_water_lvl_screen_display
  2189     0B0F  0722               	addwf	??_water_lvl_screen_display,w
  2190     0B10  3EBA               	addlw	(low ((_water_level| 0+2)))& (0+255)
  2191     0B11  0084               	movwf	4
  2192     0B12  1383               	bcf	3,7	;select IRP bank1
  2193     0B13  0800               	movf	0,w
  2194     0B14  00F6               	movwf	clcd_print@str
  2195     0B15  0A84               	incf	4,f
  2196     0B16  0800               	movf	0,w
  2197     0B17  0384               	decf	4,f
  2198     0B18  00F7               	movwf	clcd_print@str+1
  2199     0B19  3091               	movlw	145
  2200     0B1A  00F8               	movwf	clcd_print@addr
  2201     0B1B  160A  118A  254A  120A  158A  	fcall	_clcd_print
  2202                           
  2203                           ;WASHING_MACH_func.c: 92:         clcd_print(water_level[0], (0xD0 + 1));
  2204     0B20  1683               	bsf	3,5	;RP0=1, select bank1
  2205     0B21  1303               	bcf	3,6	;RP1=0, select bank1
  2206     0B22  0838               	movf	_water_level^(0+128),w
  2207     0B23  00F6               	movwf	clcd_print@str
  2208     0B24  0839               	movf	(_water_level+1)^(0+128),w
  2209     0B25  00F7               	movwf	clcd_print@str+1
  2210     0B26  30D1               	movlw	209
  2211     0B27  00F8               	movwf	clcd_print@addr
  2212     0B28  160A  118A  254A  120A  158A  	fcall	_clcd_print
  2213                           
  2214                           ;WASHING_MACH_func.c: 93:     }
  2215     0B2D  2B61               	goto	l185
  2216     0B2E                     l3522:
  2217     0B2E  3004               	movlw	4
  2218     0B2F  066B               	xorwf	_level,w
  2219     0B30  1D03               	btfss	3,2
  2220     0B31  2B33               	goto	u4471
  2221     0B32  2B34               	goto	u4470
  2222     0B33                     u4471:
  2223     0B33  2B61               	goto	l185
  2224     0B34                     u4470:
  2225     0B34                     l3524:
  2226                           
  2227                           ;WASHING_MACH_func.c: 95:         clcd_print(water_level[level], (0xC0 + 1));
  2228     0B34  086B               	movf	_level,w
  2229     0B35  00A2               	movwf	??_water_lvl_screen_display
  2230     0B36  0722               	addwf	??_water_lvl_screen_display,w
  2231     0B37  3EB8               	addlw	(low (_water_level| 0))& (0+255)
  2232     0B38  0084               	movwf	4
  2233     0B39  1383               	bcf	3,7	;select IRP bank1
  2234     0B3A  0800               	movf	0,w
  2235     0B3B  00F6               	movwf	clcd_print@str
  2236     0B3C  0A84               	incf	4,f
  2237     0B3D  0800               	movf	0,w
  2238     0B3E  0384               	decf	4,f
  2239     0B3F  00F7               	movwf	clcd_print@str+1
  2240     0B40  30C1               	movlw	193
  2241     0B41  00F8               	movwf	clcd_print@addr
  2242     0B42  160A  118A  254A  120A  158A  	fcall	_clcd_print
  2243                           
  2244                           ;WASHING_MACH_func.c: 96:         clcd_print(water_level[0], (0x90 + 1));
  2245     0B47  1683               	bsf	3,5	;RP0=1, select bank1
  2246     0B48  1303               	bcf	3,6	;RP1=0, select bank1
  2247     0B49  0838               	movf	_water_level^(0+128),w
  2248     0B4A  00F6               	movwf	clcd_print@str
  2249     0B4B  0839               	movf	(_water_level+1)^(0+128),w
  2250     0B4C  00F7               	movwf	clcd_print@str+1
  2251     0B4D  3091               	movlw	145
  2252     0B4E  00F8               	movwf	clcd_print@addr
  2253     0B4F  160A  118A  254A  120A  158A  	fcall	_clcd_print
  2254                           
  2255                           ;WASHING_MACH_func.c: 97:         clcd_print(water_level[1], (0xD0 + 1));
  2256     0B54  1683               	bsf	3,5	;RP0=1, select bank1
  2257     0B55  1303               	bcf	3,6	;RP1=0, select bank1
  2258     0B56  083A               	movf	(low ((_water_level| 0+2)))^(0+128),w
  2259     0B57  00F6               	movwf	clcd_print@str
  2260     0B58  083B               	movf	((low ((_water_level| 0+2))+1))^(0+128),w
  2261     0B59  00F7               	movwf	clcd_print@str+1
  2262     0B5A  30D1               	movlw	209
  2263     0B5B  00F8               	movwf	clcd_print@addr
  2264     0B5C  160A  118A  254A  120A  158A  	fcall	_clcd_print
  2265     0B61                     l185:
  2266     0B61  0008               	return
  2267     0B62                     __end_of_water_lvl_screen_display:
  2268                           
  2269                           	psect	text2
  2270     097C                     __ptext2:	
  2271 ;; *************** function _washing_program_displaying *****************
  2272 ;; Defined at:
  2273 ;;		line 37 in file "WASHING_MACH_func.c"
  2274 ;; Parameters:    Size  Location     Type
  2275 ;;  key             1    wreg     unsigned char 
  2276 ;; Auto vars:     Size  Location     Type
  2277 ;;  key             1    4[BANK0 ] unsigned char 
  2278 ;; Return value:  Size  Location     Type
  2279 ;;                  1    wreg      void 
  2280 ;; Registers used:
  2281 ;;		wreg, fsr0l, fsr0h, status,2, status,0, btemp+1, pclath, cstack
  2282 ;; Tracked objects:
  2283 ;;		On entry : 0/0
  2284 ;;		On exit  : 0/0
  2285 ;;		Unchanged: 0/0
  2286 ;; Data sizes:     COMMON   BANK0   BANK1   BANK3   BANK2
  2287 ;;      Params:         0       0       0       0       0
  2288 ;;      Locals:         0       1       0       0       0
  2289 ;;      Temps:          0       2       0       0       0
  2290 ;;      Totals:         0       3       0       0       0
  2291 ;;Total ram usage:        3 bytes
  2292 ;; Hardware stack levels used: 1
  2293 ;; Hardware stack levels required when called: 3
  2294 ;; This function calls:
  2295 ;;		_clcd_print
  2296 ;;		_clcd_putch
  2297 ;;		_clear_screen
  2298 ;; This function is called by:
  2299 ;;		_main
  2300 ;; This function uses a non-reentrant model
  2301 ;;
  2302                           
  2303     097C                     _washing_program_displaying:	
  2304                           ;psect for function _washing_program_displaying
  2305                           
  2306                           
  2307                           ;incstack = 0
  2308                           ; Regs used in _washing_program_displaying: [wreg-fsr0h+status,2+status,0+btemp+1+pclath
      +                          +cstack]
  2309                           ;washing_program_displaying@key stored from wreg
  2310     097C  1283               	bcf	3,5	;RP0=0, select bank0
  2311     097D  1303               	bcf	3,6	;RP1=0, select bank0
  2312     097E  00A4               	movwf	washing_program_displaying@key
  2313     097F                     l3462:
  2314                           
  2315                           ;WASHING_MACH_func.c: 38:     if( reset_flag == 0x11)
  2316     097F  3011               	movlw	17
  2317     0980  066F               	xorwf	_reset_flag,w
  2318     0981  1D03               	btfss	3,2
  2319     0982  2984               	goto	u4361
  2320     0983  2985               	goto	u4360
  2321     0984                     u4361:
  2322     0984  298E               	goto	l3468
  2323     0985                     u4360:
  2324     0985                     l3464:
  2325                           
  2326                           ;WASHING_MACH_func.c: 39:     {;WASHING_MACH_func.c: 40:         clear_screen();
  2327     0985  160A  118A  2491  120A  158A  	fcall	_clear_screen
  2328     098A                     l3466:
  2329                           
  2330                           ;WASHING_MACH_func.c: 41:         reset_flag = 0x88;
  2331     098A  3088               	movlw	136
  2332     098B  1283               	bcf	3,5	;RP0=0, select bank0
  2333     098C  1303               	bcf	3,6	;RP1=0, select bank0
  2334     098D  00EF               	movwf	_reset_flag
  2335     098E                     l3468:
  2336                           
  2337                           ;WASHING_MACH_func.c: 43:     if(key == 0x37){
  2338     098E  3037               	movlw	55
  2339     098F  0624               	xorwf	washing_program_displaying@key,w
  2340     0990  1D03               	btfss	3,2
  2341     0991  2993               	goto	u4371
  2342     0992  2994               	goto	u4370
  2343     0993                     u4371:
  2344     0993  29A4               	goto	l3478
  2345     0994                     u4370:
  2346     0994                     l3470:
  2347                           
  2348                           ;WASHING_MACH_func.c: 44:         clear_screen();
  2349     0994  160A  118A  2491  120A  158A  	fcall	_clear_screen
  2350     0999                     l3472:
  2351                           
  2352                           ;WASHING_MACH_func.c: 45:         program_index++;
  2353     0999  3001               	movlw	1
  2354     099A  1283               	bcf	3,5	;RP0=0, select bank0
  2355     099B  1303               	bcf	3,6	;RP1=0, select bank0
  2356     099C  07EC               	addwf	_program_index,f
  2357     099D                     l3474:
  2358                           
  2359                           ;WASHING_MACH_func.c: 46:         if(program_index == 12){
  2360     099D  300C               	movlw	12
  2361     099E  066C               	xorwf	_program_index,w
  2362     099F  1D03               	btfss	3,2
  2363     09A0  29A2               	goto	u4381
  2364     09A1  29A3               	goto	u4380
  2365     09A2                     u4381:
  2366     09A2  29A4               	goto	l3478
  2367     09A3                     u4380:
  2368     09A3                     l3476:
  2369                           
  2370                           ;WASHING_MACH_func.c: 47:             program_index = 0;
  2371     09A3  01EC               	clrf	_program_index
  2372     09A4                     l3478:
  2373                           
  2374                           ;WASHING_MACH_func.c: 50:     clcd_print("Washing Program:",(0x80 + 0));
  2375     09A4  3000               	movlw	low (STR_26| (0+32768))
  2376     09A5  00F6               	movwf	clcd_print@str
  2377     09A6  3090               	movlw	high (STR_26| (0+32768))
  2378     09A7  00F7               	movwf	clcd_print@str+1
  2379     09A8  3080               	movlw	128
  2380     09A9  00F8               	movwf	clcd_print@addr
  2381     09AA  160A  118A  254A  120A  158A  	fcall	_clcd_print
  2382     09AF                     l3480:
  2383                           
  2384                           ;WASHING_MACH_func.c: 51:     clcd_putch('>',(0xC0 + 0));
  2385     09AF  30C0               	movlw	192
  2386     09B0  1283               	bcf	3,5	;RP0=0, select bank0
  2387     09B1  1303               	bcf	3,6	;RP1=0, select bank0
  2388     09B2  00A0               	movwf	clcd_putch@addr
  2389     09B3  303E               	movlw	62
  2390     09B4  160A  118A  24C8  120A  158A  	fcall	_clcd_putch
  2391     09B9                     l3482:
  2392                           
  2393                           ;WASHING_MACH_func.c: 53:     if(program_index <= 9 ){
  2394     09B9  300A               	movlw	10
  2395     09BA  1283               	bcf	3,5	;RP0=0, select bank0
  2396     09BB  1303               	bcf	3,6	;RP1=0, select bank0
  2397     09BC  026C               	subwf	_program_index,w
  2398     09BD  1803               	skipnc
  2399     09BE  29C0               	goto	u4391
  2400     09BF  29C1               	goto	u4390
  2401     09C0                     u4391:
  2402     09C0  29FF               	goto	l3486
  2403     09C1                     u4390:
  2404     09C1                     l3484:
  2405                           
  2406                           ;WASHING_MACH_func.c: 54:         clcd_print(washing_programs[ program_index], (0xC0 + 2
      +                          ));
  2407     09C1  086C               	movf	_program_index,w
  2408     09C2  00A2               	movwf	??_washing_program_displaying
  2409     09C3  0722               	addwf	??_washing_program_displaying,w
  2410     09C4  3EA0               	addlw	(low (_washing_programs| 0))& (0+255)
  2411     09C5  0084               	movwf	4
  2412     09C6  1383               	bcf	3,7	;select IRP bank1
  2413     09C7  0800               	movf	0,w
  2414     09C8  00F6               	movwf	clcd_print@str
  2415     09C9  0A84               	incf	4,f
  2416     09CA  0800               	movf	0,w
  2417     09CB  0384               	decf	4,f
  2418     09CC  00F7               	movwf	clcd_print@str+1
  2419     09CD  30C2               	movlw	194
  2420     09CE  00F8               	movwf	clcd_print@addr
  2421     09CF  160A  118A  254A  120A  158A  	fcall	_clcd_print
  2422                           
  2423                           ;WASHING_MACH_func.c: 55:         clcd_print(washing_programs[ program_index + 1], (0x90
      +                           + 2));
  2424     09D4  1283               	bcf	3,5	;RP0=0, select bank0
  2425     09D5  1303               	bcf	3,6	;RP1=0, select bank0
  2426     09D6  086C               	movf	_program_index,w
  2427     09D7  00A2               	movwf	??_washing_program_displaying
  2428     09D8  0722               	addwf	??_washing_program_displaying,w
  2429     09D9  3EA2               	addlw	(low ((_washing_programs| 0+2)))& (0+255)
  2430     09DA  0084               	movwf	4
  2431     09DB  1383               	bcf	3,7	;select IRP bank1
  2432     09DC  0800               	movf	0,w
  2433     09DD  00F6               	movwf	clcd_print@str
  2434     09DE  0A84               	incf	4,f
  2435     09DF  0800               	movf	0,w
  2436     09E0  0384               	decf	4,f
  2437     09E1  00F7               	movwf	clcd_print@str+1
  2438     09E2  3092               	movlw	146
  2439     09E3  00F8               	movwf	clcd_print@addr
  2440     09E4  160A  118A  254A  120A  158A  	fcall	_clcd_print
  2441                           
  2442                           ;WASHING_MACH_func.c: 56:         clcd_print(washing_programs[ program_index + 2], (0xD0
      +                           + 2));
  2443     09E9  1283               	bcf	3,5	;RP0=0, select bank0
  2444     09EA  1303               	bcf	3,6	;RP1=0, select bank0
  2445     09EB  086C               	movf	_program_index,w
  2446     09EC  00A2               	movwf	??_washing_program_displaying
  2447     09ED  0722               	addwf	??_washing_program_displaying,w
  2448     09EE  3EA4               	addlw	(low ((_washing_programs| 0+4)))& (0+255)
  2449     09EF  0084               	movwf	4
  2450     09F0  1383               	bcf	3,7	;select IRP bank1
  2451     09F1  0800               	movf	0,w
  2452     09F2  00F6               	movwf	clcd_print@str
  2453     09F3  0A84               	incf	4,f
  2454     09F4  0800               	movf	0,w
  2455     09F5  0384               	decf	4,f
  2456     09F6  00F7               	movwf	clcd_print@str+1
  2457     09F7  30D2               	movlw	210
  2458     09F8  00F8               	movwf	clcd_print@addr
  2459     09F9  160A  118A  254A  120A  158A  	fcall	_clcd_print
  2460                           
  2461                           ;WASHING_MACH_func.c: 57:     }
  2462     09FE  2A6E               	goto	l174
  2463     09FF                     l3486:
  2464     09FF  300A               	movlw	10
  2465     0A00  066C               	xorwf	_program_index,w
  2466     0A01  1D03               	btfss	3,2
  2467     0A02  2A04               	goto	u4401
  2468     0A03  2A05               	goto	u4400
  2469     0A04                     u4401:
  2470     0A04  2A3B               	goto	l3490
  2471     0A05                     u4400:
  2472     0A05                     l3488:
  2473                           
  2474                           ;WASHING_MACH_func.c: 59:         clcd_print(washing_programs[ program_index], (0xC0 + 2
      +                          ));
  2475     0A05  086C               	movf	_program_index,w
  2476     0A06  00A2               	movwf	??_washing_program_displaying
  2477     0A07  0722               	addwf	??_washing_program_displaying,w
  2478     0A08  3EA0               	addlw	(low (_washing_programs| 0))& (0+255)
  2479     0A09  0084               	movwf	4
  2480     0A0A  1383               	bcf	3,7	;select IRP bank1
  2481     0A0B  0800               	movf	0,w
  2482     0A0C  00F6               	movwf	clcd_print@str
  2483     0A0D  0A84               	incf	4,f
  2484     0A0E  0800               	movf	0,w
  2485     0A0F  0384               	decf	4,f
  2486     0A10  00F7               	movwf	clcd_print@str+1
  2487     0A11  30C2               	movlw	194
  2488     0A12  00F8               	movwf	clcd_print@addr
  2489     0A13  160A  118A  254A  120A  158A  	fcall	_clcd_print
  2490                           
  2491                           ;WASHING_MACH_func.c: 60:         clcd_print(washing_programs[ program_index + 1], (0x90
      +                           + 2));
  2492     0A18  1283               	bcf	3,5	;RP0=0, select bank0
  2493     0A19  1303               	bcf	3,6	;RP1=0, select bank0
  2494     0A1A  086C               	movf	_program_index,w
  2495     0A1B  00A2               	movwf	??_washing_program_displaying
  2496     0A1C  0722               	addwf	??_washing_program_displaying,w
  2497     0A1D  3EA2               	addlw	(low ((_washing_programs| 0+2)))& (0+255)
  2498     0A1E  0084               	movwf	4
  2499     0A1F  1383               	bcf	3,7	;select IRP bank1
  2500     0A20  0800               	movf	0,w
  2501     0A21  00F6               	movwf	clcd_print@str
  2502     0A22  0A84               	incf	4,f
  2503     0A23  0800               	movf	0,w
  2504     0A24  0384               	decf	4,f
  2505     0A25  00F7               	movwf	clcd_print@str+1
  2506     0A26  3092               	movlw	146
  2507     0A27  00F8               	movwf	clcd_print@addr
  2508     0A28  160A  118A  254A  120A  158A  	fcall	_clcd_print
  2509                           
  2510                           ;WASHING_MACH_func.c: 61:         clcd_print(washing_programs[0], (0xD0 + 2));
  2511     0A2D  1683               	bsf	3,5	;RP0=1, select bank1
  2512     0A2E  1303               	bcf	3,6	;RP1=0, select bank1
  2513     0A2F  0820               	movf	_washing_programs^(0+128),w
  2514     0A30  00F6               	movwf	clcd_print@str
  2515     0A31  0821               	movf	(_washing_programs+1)^(0+128),w
  2516     0A32  00F7               	movwf	clcd_print@str+1
  2517     0A33  30D2               	movlw	210
  2518     0A34  00F8               	movwf	clcd_print@addr
  2519     0A35  160A  118A  254A  120A  158A  	fcall	_clcd_print
  2520                           
  2521                           ;WASHING_MACH_func.c: 62:     }
  2522     0A3A  2A6E               	goto	l174
  2523     0A3B                     l3490:
  2524     0A3B  300B               	movlw	11
  2525     0A3C  066C               	xorwf	_program_index,w
  2526     0A3D  1D03               	btfss	3,2
  2527     0A3E  2A40               	goto	u4411
  2528     0A3F  2A41               	goto	u4410
  2529     0A40                     u4411:
  2530     0A40  2A6E               	goto	l174
  2531     0A41                     u4410:
  2532     0A41                     l3492:
  2533                           
  2534                           ;WASHING_MACH_func.c: 64:         clcd_print(washing_programs[ program_index], (0xC0 + 2
      +                          ));
  2535     0A41  086C               	movf	_program_index,w
  2536     0A42  00A2               	movwf	??_washing_program_displaying
  2537     0A43  0722               	addwf	??_washing_program_displaying,w
  2538     0A44  3EA0               	addlw	(low (_washing_programs| 0))& (0+255)
  2539     0A45  0084               	movwf	4
  2540     0A46  1383               	bcf	3,7	;select IRP bank1
  2541     0A47  0800               	movf	0,w
  2542     0A48  00F6               	movwf	clcd_print@str
  2543     0A49  0A84               	incf	4,f
  2544     0A4A  0800               	movf	0,w
  2545     0A4B  0384               	decf	4,f
  2546     0A4C  00F7               	movwf	clcd_print@str+1
  2547     0A4D  30C2               	movlw	194
  2548     0A4E  00F8               	movwf	clcd_print@addr
  2549     0A4F  160A  118A  254A  120A  158A  	fcall	_clcd_print
  2550                           
  2551                           ;WASHING_MACH_func.c: 65:         clcd_print(washing_programs[ 0 ], (0x90 + 2));
  2552     0A54  1683               	bsf	3,5	;RP0=1, select bank1
  2553     0A55  1303               	bcf	3,6	;RP1=0, select bank1
  2554     0A56  0820               	movf	_washing_programs^(0+128),w
  2555     0A57  00F6               	movwf	clcd_print@str
  2556     0A58  0821               	movf	(_washing_programs+1)^(0+128),w
  2557     0A59  00F7               	movwf	clcd_print@str+1
  2558     0A5A  3092               	movlw	146
  2559     0A5B  00F8               	movwf	clcd_print@addr
  2560     0A5C  160A  118A  254A  120A  158A  	fcall	_clcd_print
  2561                           
  2562                           ;WASHING_MACH_func.c: 66:         clcd_print(washing_programs[ 1 ], (0xD0 + 2));
  2563     0A61  1683               	bsf	3,5	;RP0=1, select bank1
  2564     0A62  1303               	bcf	3,6	;RP1=0, select bank1
  2565     0A63  0822               	movf	(low ((_washing_programs| 0+2)))^(0+128),w
  2566     0A64  00F6               	movwf	clcd_print@str
  2567     0A65  0823               	movf	((low ((_washing_programs| 0+2))+1))^(0+128),w
  2568     0A66  00F7               	movwf	clcd_print@str+1
  2569     0A67  30D2               	movlw	210
  2570     0A68  00F8               	movwf	clcd_print@addr
  2571     0A69  160A  118A  254A  120A  158A  	fcall	_clcd_print
  2572     0A6E                     l174:
  2573     0A6E  0008               	return
  2574     0A6F                     __end_of_washing_program_displaying:
  2575                           
  2576                           	psect	text3
  2577     0C67                     __ptext3:	
  2578 ;; *************** function _set_time *****************
  2579 ;; Defined at:
  2580 ;;		line 101 in file "WASHING_MACH_func.c"
  2581 ;; Parameters:    Size  Location     Type
  2582 ;;		None
  2583 ;; Auto vars:     Size  Location     Type
  2584 ;;		None
  2585 ;; Return value:  Size  Location     Type
  2586 ;;                  1    wreg      void 
  2587 ;; Registers used:
  2588 ;;		wreg, fsr0l, fsr0h, status,2, status,0
  2589 ;; Tracked objects:
  2590 ;;		On entry : 0/0
  2591 ;;		On exit  : 0/0
  2592 ;;		Unchanged: 0/0
  2593 ;; Data sizes:     COMMON   BANK0   BANK1   BANK3   BANK2
  2594 ;;      Params:         0       0       0       0       0
  2595 ;;      Locals:         0       0       0       0       0
  2596 ;;      Temps:          0       0       0       0       0
  2597 ;;      Totals:         0       0       0       0       0
  2598 ;;Total ram usage:        0 bytes
  2599 ;; Hardware stack levels used: 1
  2600 ;; Hardware stack levels required when called: 1
  2601 ;; This function calls:
  2602 ;;		Nothing
  2603 ;; This function is called by:
  2604 ;;		_main
  2605 ;; This function uses a non-reentrant model
  2606 ;;
  2607                           
  2608     0C67                     _set_time:	
  2609                           ;psect for function _set_time
  2610                           
  2611     0C67                     l2774:	
  2612                           ;incstack = 0
  2613                           ; Regs used in _set_time: [wreg-fsr0h+status,2+status,0]
  2614                           
  2615                           
  2616                           ;WASHING_MACH_func.c: 102:     switch(program_index){
  2617     0C67  2D87               	goto	l2908
  2618     0C68                     l2776:
  2619                           
  2620                           ;WASHING_MACH_func.c: 106:                     min = 0;
  2621     0C68  01E9               	clrf	_min
  2622     0C69                     l2778:
  2623                           
  2624                           ;WASHING_MACH_func.c: 107:                     sec = 33;
  2625     0C69  3021               	movlw	33
  2626     0C6A  00EA               	movwf	_sec
  2627                           
  2628                           ;WASHING_MACH_func.c: 108:                     break;
  2629     0C6B  2DAF               	goto	l286
  2630     0C6C                     l2780:
  2631                           
  2632                           ;WASHING_MACH_func.c: 111:                     min = 0;
  2633     0C6C  01E9               	clrf	_min
  2634     0C6D                     l2782:
  2635                           
  2636                           ;WASHING_MACH_func.c: 112:                     sec = 41;
  2637     0C6D  3029               	movlw	41
  2638     0C6E  00EA               	movwf	_sec
  2639                           
  2640                           ;WASHING_MACH_func.c: 113:                     break;
  2641     0C6F  2DAF               	goto	l286
  2642     0C70                     l2784:
  2643                           
  2644                           ;WASHING_MACH_func.c: 116:                     min = 0;
  2645     0C70  01E9               	clrf	_min
  2646     0C71                     l2786:
  2647                           
  2648                           ;WASHING_MACH_func.c: 117:                     sec = 45;
  2649     0C71  302D               	movlw	45
  2650     0C72  00EA               	movwf	_sec
  2651                           
  2652                           ;WASHING_MACH_func.c: 118:                     break;
  2653     0C73  2DAF               	goto	l286
  2654     0C74                     l2790:
  2655     0C74  086B               	movf	_level,w
  2656                           
  2657                           ; Switch size 1, requested type "simple"
  2658                           ; Number of cases is 5, Range of values is 0 to 4
  2659                           ; switch strategies available:
  2660                           ; Name         Instructions Cycles
  2661                           ; simple_byte           16     9 (average)
  2662                           ; direct_byte           23     8 (fixed)
  2663                           ; jumptable            260     6 (fixed)
  2664                           ;	Chosen strategy is simple_byte
  2665     0C75  3A00               	xorlw	0	; case 0
  2666     0C76  1903               	skipnz
  2667     0C77  2C6C               	goto	l2780
  2668     0C78  3A01               	xorlw	1	; case 1
  2669     0C79  1903               	skipnz
  2670     0C7A  2C68               	goto	l2776
  2671     0C7B  3A03               	xorlw	3	; case 2
  2672     0C7C  1903               	skipnz
  2673     0C7D  2C6C               	goto	l2780
  2674     0C7E  3A01               	xorlw	1	; case 3
  2675     0C7F  1903               	skipnz
  2676     0C80  2C70               	goto	l2784
  2677     0C81  3A07               	xorlw	7	; case 4
  2678     0C82  1903               	skipnz
  2679     0C83  2C70               	goto	l2784
  2680     0C84  2DAF               	goto	l286
  2681     0C85                     l2792:
  2682                           
  2683                           ;WASHING_MACH_func.c: 124:                     min = 0;
  2684     0C85  01E9               	clrf	_min
  2685     0C86                     l2794:
  2686                           
  2687                           ;WASHING_MACH_func.c: 125:                     sec = 43;
  2688     0C86  302B               	movlw	43
  2689     0C87  00EA               	movwf	_sec
  2690                           
  2691                           ;WASHING_MACH_func.c: 126:                     break;
  2692     0C88  2DAF               	goto	l286
  2693     0C89                     l2796:
  2694                           
  2695                           ;WASHING_MACH_func.c: 129:                     min = 0;
  2696     0C89  01E9               	clrf	_min
  2697     0C8A                     l2798:
  2698                           
  2699                           ;WASHING_MACH_func.c: 130:                     sec = 50;
  2700     0C8A  3032               	movlw	50
  2701     0C8B  00EA               	movwf	_sec
  2702                           
  2703                           ;WASHING_MACH_func.c: 131:                     break;
  2704     0C8C  2DAF               	goto	l286
  2705     0C8D                     l2800:
  2706                           
  2707                           ;WASHING_MACH_func.c: 134:                     min = 0;
  2708     0C8D  01E9               	clrf	_min
  2709     0C8E                     l2802:
  2710                           
  2711                           ;WASHING_MACH_func.c: 135:                     sec = 57;
  2712     0C8E  3039               	movlw	57
  2713     0C8F  00EA               	movwf	_sec
  2714                           
  2715                           ;WASHING_MACH_func.c: 136:                     break;
  2716     0C90  2DAF               	goto	l286
  2717     0C91                     l2806:
  2718     0C91  086B               	movf	_level,w
  2719                           
  2720                           ; Switch size 1, requested type "simple"
  2721                           ; Number of cases is 5, Range of values is 0 to 4
  2722                           ; switch strategies available:
  2723                           ; Name         Instructions Cycles
  2724                           ; simple_byte           16     9 (average)
  2725                           ; direct_byte           23     8 (fixed)
  2726                           ; jumptable            260     6 (fixed)
  2727                           ;	Chosen strategy is simple_byte
  2728     0C92  3A00               	xorlw	0	; case 0
  2729     0C93  1903               	skipnz
  2730     0C94  2C89               	goto	l2796
  2731     0C95  3A01               	xorlw	1	; case 1
  2732     0C96  1903               	skipnz
  2733     0C97  2C85               	goto	l2792
  2734     0C98  3A03               	xorlw	3	; case 2
  2735     0C99  1903               	skipnz
  2736     0C9A  2C89               	goto	l2796
  2737     0C9B  3A01               	xorlw	1	; case 3
  2738     0C9C  1903               	skipnz
  2739     0C9D  2C8D               	goto	l2800
  2740     0C9E  3A07               	xorlw	7	; case 4
  2741     0C9F  1903               	skipnz
  2742     0CA0  2C8D               	goto	l2800
  2743     0CA1  2DAF               	goto	l286
  2744     0CA2                     l2808:
  2745                           
  2746                           ;WASHING_MACH_func.c: 144:                     min = 0;
  2747     0CA2  01E9               	clrf	_min
  2748     0CA3                     l2810:
  2749                           
  2750                           ;WASHING_MACH_func.c: 145:                     sec = 26;
  2751     0CA3  301A               	movlw	26
  2752     0CA4  00EA               	movwf	_sec
  2753                           
  2754                           ;WASHING_MACH_func.c: 146:                     break;
  2755     0CA5  2DAF               	goto	l286
  2756     0CA6                     l2812:
  2757                           
  2758                           ;WASHING_MACH_func.c: 149:                     min = 0;
  2759     0CA6  01E9               	clrf	_min
  2760     0CA7                     l2814:
  2761                           
  2762                           ;WASHING_MACH_func.c: 150:                     sec = 31;
  2763     0CA7  301F               	movlw	31
  2764     0CA8  00EA               	movwf	_sec
  2765                           
  2766                           ;WASHING_MACH_func.c: 151:                     break;
  2767     0CA9  2DAF               	goto	l286
  2768     0CAA                     l2818:
  2769     0CAA  086B               	movf	_level,w
  2770                           
  2771                           ; Switch size 1, requested type "simple"
  2772                           ; Number of cases is 5, Range of values is 0 to 4
  2773                           ; switch strategies available:
  2774                           ; Name         Instructions Cycles
  2775                           ; simple_byte           16     9 (average)
  2776                           ; direct_byte           23     8 (fixed)
  2777                           ; jumptable            260     6 (fixed)
  2778                           ;	Chosen strategy is simple_byte
  2779     0CAB  3A00               	xorlw	0	; case 0
  2780     0CAC  1903               	skipnz
  2781     0CAD  2CA2               	goto	l2808
  2782     0CAE  3A01               	xorlw	1	; case 1
  2783     0CAF  1903               	skipnz
  2784     0CB0  2CA2               	goto	l2808
  2785     0CB1  3A03               	xorlw	3	; case 2
  2786     0CB2  1903               	skipnz
  2787     0CB3  2CA2               	goto	l2808
  2788     0CB4  3A01               	xorlw	1	; case 3
  2789     0CB5  1903               	skipnz
  2790     0CB6  2CA6               	goto	l2812
  2791     0CB7  3A07               	xorlw	7	; case 4
  2792     0CB8  1903               	skipnz
  2793     0CB9  2CA6               	goto	l2812
  2794     0CBA  2DAF               	goto	l286
  2795     0CBB                     l218:	
  2796                           ;WASHING_MACH_func.c: 158:                 case 2:
  2797                           
  2798     0CBB                     l220:	
  2799                           ;WASHING_MACH_func.c: 160:                 case 4:
  2800                           
  2801                           
  2802                           ;WASHING_MACH_func.c: 161:                     min = 1;
  2803     0CBB  3001               	movlw	1
  2804     0CBC  00E9               	movwf	_min
  2805                           
  2806                           ;WASHING_MACH_func.c: 162:                     sec = 16;
  2807     0CBD  3010               	movlw	16
  2808     0CBE  00EA               	movwf	_sec
  2809                           
  2810                           ;WASHING_MACH_func.c: 163:                     break;
  2811     0CBF  2DAF               	goto	l286
  2812     0CC0                     l2822:
  2813     0CC0  086B               	movf	_level,w
  2814                           
  2815                           ; Switch size 1, requested type "simple"
  2816                           ; Number of cases is 5, Range of values is 0 to 4
  2817                           ; switch strategies available:
  2818                           ; Name         Instructions Cycles
  2819                           ; simple_byte           16     9 (average)
  2820                           ; direct_byte           23     8 (fixed)
  2821                           ; jumptable            260     6 (fixed)
  2822                           ;	Chosen strategy is simple_byte
  2823     0CC1  3A00               	xorlw	0	; case 0
  2824     0CC2  1903               	skipnz
  2825     0CC3  2CBB               	goto	l220
  2826     0CC4  3A01               	xorlw	1	; case 1
  2827     0CC5  1903               	skipnz
  2828     0CC6  2CBB               	goto	l218
  2829     0CC7  3A03               	xorlw	3	; case 2
  2830     0CC8  1903               	skipnz
  2831     0CC9  2CBB               	goto	l220
  2832     0CCA  3A01               	xorlw	1	; case 3
  2833     0CCB  1903               	skipnz
  2834     0CCC  2CBB               	goto	l220
  2835     0CCD  3A07               	xorlw	7	; case 4
  2836     0CCE  1903               	skipnz
  2837     0CCF  2CBB               	goto	l220
  2838     0CD0  2DAF               	goto	l286
  2839     0CD1                     l226:	
  2840                           ;WASHING_MACH_func.c: 170:                 case 2:
  2841                           
  2842     0CD1                     l228:	
  2843                           ;WASHING_MACH_func.c: 172:                 case 4:
  2844                           
  2845                           
  2846                           ;WASHING_MACH_func.c: 173:                     min = 1;
  2847     0CD1  3001               	movlw	1
  2848     0CD2  00E9               	movwf	_min
  2849                           
  2850                           ;WASHING_MACH_func.c: 174:                     sec = 36;
  2851     0CD3  3024               	movlw	36
  2852     0CD4  00EA               	movwf	_sec
  2853                           
  2854                           ;WASHING_MACH_func.c: 175:                     break;
  2855     0CD5  2DAF               	goto	l286
  2856     0CD6                     l2826:
  2857     0CD6  086B               	movf	_level,w
  2858                           
  2859                           ; Switch size 1, requested type "simple"
  2860                           ; Number of cases is 5, Range of values is 0 to 4
  2861                           ; switch strategies available:
  2862                           ; Name         Instructions Cycles
  2863                           ; simple_byte           16     9 (average)
  2864                           ; direct_byte           23     8 (fixed)
  2865                           ; jumptable            260     6 (fixed)
  2866                           ;	Chosen strategy is simple_byte
  2867     0CD7  3A00               	xorlw	0	; case 0
  2868     0CD8  1903               	skipnz
  2869     0CD9  2CD1               	goto	l228
  2870     0CDA  3A01               	xorlw	1	; case 1
  2871     0CDB  1903               	skipnz
  2872     0CDC  2CD1               	goto	l226
  2873     0CDD  3A03               	xorlw	3	; case 2
  2874     0CDE  1903               	skipnz
  2875     0CDF  2CD1               	goto	l228
  2876     0CE0  3A01               	xorlw	1	; case 3
  2877     0CE1  1903               	skipnz
  2878     0CE2  2CD1               	goto	l228
  2879     0CE3  3A07               	xorlw	7	; case 4
  2880     0CE4  1903               	skipnz
  2881     0CE5  2CD1               	goto	l228
  2882     0CE6  2DAF               	goto	l286
  2883     0CE7                     l2832:
  2884                           
  2885                           ;WASHING_MACH_func.c: 188:                     min = 0;
  2886     0CE7  01E9               	clrf	_min
  2887     0CE8                     l2834:
  2888                           
  2889                           ;WASHING_MACH_func.c: 189:                     sec = 36;
  2890     0CE8  3024               	movlw	36
  2891     0CE9  00EA               	movwf	_sec
  2892                           
  2893                           ;WASHING_MACH_func.c: 190:                     break;
  2894     0CEA  2DAF               	goto	l286
  2895     0CEB                     l2838:
  2896     0CEB  086B               	movf	_level,w
  2897                           
  2898                           ; Switch size 1, requested type "simple"
  2899                           ; Number of cases is 5, Range of values is 0 to 4
  2900                           ; switch strategies available:
  2901                           ; Name         Instructions Cycles
  2902                           ; simple_byte           16     9 (average)
  2903                           ; direct_byte           23     8 (fixed)
  2904                           ; jumptable            260     6 (fixed)
  2905                           ;	Chosen strategy is simple_byte
  2906     0CEC  3A00               	xorlw	0	; case 0
  2907     0CED  1903               	skipnz
  2908     0CEE  2CA6               	goto	l2812
  2909     0CEF  3A01               	xorlw	1	; case 1
  2910     0CF0  1903               	skipnz
  2911     0CF1  2CA6               	goto	l2812
  2912     0CF2  3A03               	xorlw	3	; case 2
  2913     0CF3  1903               	skipnz
  2914     0CF4  2CA6               	goto	l2812
  2915     0CF5  3A01               	xorlw	1	; case 3
  2916     0CF6  1903               	skipnz
  2917     0CF7  2CE7               	goto	l2832
  2918     0CF8  3A07               	xorlw	7	; case 4
  2919     0CF9  1903               	skipnz
  2920     0CFA  2CE7               	goto	l2832
  2921     0CFB  2DAF               	goto	l286
  2922     0CFC                     l243:	
  2923                           ;WASHING_MACH_func.c: 198:                 case 3:
  2924                           
  2925     0CFC                     l2840:
  2926                           
  2927                           ;WASHING_MACH_func.c: 200:                     min = 0;
  2928     0CFC  01E9               	clrf	_min
  2929     0CFD                     l2842:
  2930                           
  2931                           ;WASHING_MACH_func.c: 201:                     sec = 29;
  2932     0CFD  301D               	movlw	29
  2933     0CFE  00EA               	movwf	_sec
  2934                           
  2935                           ;WASHING_MACH_func.c: 202:                     break;
  2936     0CFF  2DAF               	goto	l286
  2937     0D00                     l2846:
  2938     0D00  086B               	movf	_level,w
  2939                           
  2940                           ; Switch size 1, requested type "simple"
  2941                           ; Number of cases is 5, Range of values is 0 to 4
  2942                           ; switch strategies available:
  2943                           ; Name         Instructions Cycles
  2944                           ; simple_byte           16     9 (average)
  2945                           ; direct_byte           23     8 (fixed)
  2946                           ; jumptable            260     6 (fixed)
  2947                           ;	Chosen strategy is simple_byte
  2948     0D01  3A00               	xorlw	0	; case 0
  2949     0D02  1903               	skipnz
  2950     0D03  2CFC               	goto	l2840
  2951     0D04  3A01               	xorlw	1	; case 1
  2952     0D05  1903               	skipnz
  2953     0D06  2CFC               	goto	l243
  2954     0D07  3A03               	xorlw	3	; case 2
  2955     0D08  1903               	skipnz
  2956     0D09  2CFC               	goto	l2840
  2957     0D0A  3A01               	xorlw	1	; case 3
  2958     0D0B  1903               	skipnz
  2959     0D0C  2CFC               	goto	l2840
  2960     0D0D  3A07               	xorlw	7	; case 4
  2961     0D0E  1903               	skipnz
  2962     0D0F  2CFC               	goto	l2840
  2963     0D10  2DAF               	goto	l286
  2964     0D11                     l2848:
  2965                           
  2966                           ;WASHING_MACH_func.c: 208:                     min = 0;
  2967     0D11  01E9               	clrf	_min
  2968     0D12                     l2850:
  2969                           
  2970                           ;WASHING_MACH_func.c: 209:                     sec = 46;
  2971     0D12  302E               	movlw	46
  2972     0D13  00EA               	movwf	_sec
  2973                           
  2974                           ;WASHING_MACH_func.c: 210:                     break;
  2975     0D14  2DAF               	goto	l286
  2976     0D15                     l2852:
  2977                           
  2978                           ;WASHING_MACH_func.c: 213:                     min = 0;
  2979     0D15  01E9               	clrf	_min
  2980     0D16                     l2854:
  2981                           
  2982                           ;WASHING_MACH_func.c: 214:                     sec = 53;
  2983     0D16  3035               	movlw	53
  2984     0D17  00EA               	movwf	_sec
  2985                           
  2986                           ;WASHING_MACH_func.c: 215:                     break;
  2987     0D18  2DAF               	goto	l286
  2988     0D19                     l253:	
  2989                           ;WASHING_MACH_func.c: 217:                 case 4:
  2990                           
  2991                           
  2992                           ;WASHING_MACH_func.c: 218:                     min = 1;
  2993     0D19  3001               	movlw	1
  2994     0D1A  00E9               	movwf	_min
  2995     0D1B                     l2856:
  2996                           
  2997                           ;WASHING_MACH_func.c: 219:                     sec = 0;
  2998     0D1B  01EA               	clrf	_sec
  2999                           
  3000                           ;WASHING_MACH_func.c: 220:                     break;
  3001     0D1C  2DAF               	goto	l286
  3002     0D1D                     l2860:
  3003     0D1D  086B               	movf	_level,w
  3004                           
  3005                           ; Switch size 1, requested type "simple"
  3006                           ; Number of cases is 5, Range of values is 0 to 4
  3007                           ; switch strategies available:
  3008                           ; Name         Instructions Cycles
  3009                           ; simple_byte           16     9 (average)
  3010                           ; direct_byte           23     8 (fixed)
  3011                           ; jumptable            260     6 (fixed)
  3012                           ;	Chosen strategy is simple_byte
  3013     0D1E  3A00               	xorlw	0	; case 0
  3014     0D1F  1903               	skipnz
  3015     0D20  2D15               	goto	l2852
  3016     0D21  3A01               	xorlw	1	; case 1
  3017     0D22  1903               	skipnz
  3018     0D23  2D11               	goto	l2848
  3019     0D24  3A03               	xorlw	3	; case 2
  3020     0D25  1903               	skipnz
  3021     0D26  2D15               	goto	l2852
  3022     0D27  3A01               	xorlw	1	; case 3
  3023     0D28  1903               	skipnz
  3024     0D29  2D19               	goto	l253
  3025     0D2A  3A07               	xorlw	7	; case 4
  3026     0D2B  1903               	skipnz
  3027     0D2C  2D19               	goto	l253
  3028     0D2D  2DAF               	goto	l286
  3029     0D2E                     l2862:
  3030                           
  3031                           ;WASHING_MACH_func.c: 226:                     min = 0;
  3032     0D2E  01E9               	clrf	_min
  3033     0D2F                     l2864:
  3034                           
  3035                           ;WASHING_MACH_func.c: 227:                     sec = 18;
  3036     0D2F  3012               	movlw	18
  3037     0D30  00EA               	movwf	_sec
  3038                           
  3039                           ;WASHING_MACH_func.c: 228:                     break;
  3040     0D31  2DAF               	goto	l286
  3041     0D32                     l260:	
  3042                           ;WASHING_MACH_func.c: 231:                 case 3:
  3043                           
  3044     0D32                     l2866:
  3045                           
  3046                           ;WASHING_MACH_func.c: 233:                     min = 0;
  3047     0D32  01E9               	clrf	_min
  3048     0D33                     l2868:
  3049                           
  3050                           ;WASHING_MACH_func.c: 234:                     sec = 20;
  3051     0D33  3014               	movlw	20
  3052     0D34  00EA               	movwf	_sec
  3053                           
  3054                           ;WASHING_MACH_func.c: 235:                     break;
  3055     0D35  2DAF               	goto	l286
  3056     0D36                     l2872:
  3057     0D36  086B               	movf	_level,w
  3058                           
  3059                           ; Switch size 1, requested type "simple"
  3060                           ; Number of cases is 5, Range of values is 0 to 4
  3061                           ; switch strategies available:
  3062                           ; Name         Instructions Cycles
  3063                           ; simple_byte           16     9 (average)
  3064                           ; direct_byte           23     8 (fixed)
  3065                           ; jumptable            260     6 (fixed)
  3066                           ;	Chosen strategy is simple_byte
  3067     0D37  3A00               	xorlw	0	; case 0
  3068     0D38  1903               	skipnz
  3069     0D39  2D32               	goto	l260
  3070     0D3A  3A01               	xorlw	1	; case 1
  3071     0D3B  1903               	skipnz
  3072     0D3C  2D2E               	goto	l2862
  3073     0D3D  3A03               	xorlw	3	; case 2
  3074     0D3E  1903               	skipnz
  3075     0D3F  2D32               	goto	l2866
  3076     0D40  3A01               	xorlw	1	; case 3
  3077     0D41  1903               	skipnz
  3078     0D42  2D32               	goto	l2866
  3079     0D43  3A07               	xorlw	7	; case 4
  3080     0D44  1903               	skipnz
  3081     0D45  2D32               	goto	l2866
  3082     0D46  2DAF               	goto	l286
  3083     0D47                     l267:	
  3084                           ;WASHING_MACH_func.c: 243:                 case 3:
  3085                           
  3086     0D47                     l2874:
  3087                           
  3088                           ;WASHING_MACH_func.c: 245:                     min = 0;
  3089     0D47  01E9               	clrf	_min
  3090     0D48                     l2876:
  3091                           
  3092                           ;WASHING_MACH_func.c: 246:                     sec = 6;
  3093     0D48  3006               	movlw	6
  3094     0D49  00EA               	movwf	_sec
  3095                           
  3096                           ;WASHING_MACH_func.c: 247:                     break;
  3097     0D4A  2DAF               	goto	l286
  3098     0D4B                     l2880:
  3099     0D4B  086B               	movf	_level,w
  3100                           
  3101                           ; Switch size 1, requested type "simple"
  3102                           ; Number of cases is 5, Range of values is 0 to 4
  3103                           ; switch strategies available:
  3104                           ; Name         Instructions Cycles
  3105                           ; simple_byte           16     9 (average)
  3106                           ; direct_byte           23     8 (fixed)
  3107                           ; jumptable            260     6 (fixed)
  3108                           ;	Chosen strategy is simple_byte
  3109     0D4C  3A00               	xorlw	0	; case 0
  3110     0D4D  1903               	skipnz
  3111     0D4E  2D47               	goto	l2874
  3112     0D4F  3A01               	xorlw	1	; case 1
  3113     0D50  1903               	skipnz
  3114     0D51  2D47               	goto	l267
  3115     0D52  3A03               	xorlw	3	; case 2
  3116     0D53  1903               	skipnz
  3117     0D54  2D47               	goto	l2874
  3118     0D55  3A01               	xorlw	1	; case 3
  3119     0D56  1903               	skipnz
  3120     0D57  2D47               	goto	l2874
  3121     0D58  3A07               	xorlw	7	; case 4
  3122     0D59  1903               	skipnz
  3123     0D5A  2D47               	goto	l2874
  3124     0D5B  2DAF               	goto	l286
  3125     0D5C                     l2882:
  3126                           
  3127                           ;WASHING_MACH_func.c: 253:                     min = 0;
  3128     0D5C  01E9               	clrf	_min
  3129     0D5D                     l2884:
  3130                           
  3131                           ;WASHING_MACH_func.c: 254:                     sec = 16;
  3132     0D5D  3010               	movlw	16
  3133     0D5E  00EA               	movwf	_sec
  3134                           
  3135                           ;WASHING_MACH_func.c: 255:                     break;
  3136     0D5F  2DAF               	goto	l286
  3137     0D60                     l2886:
  3138                           
  3139                           ;WASHING_MACH_func.c: 258:                     min = 0;
  3140     0D60  01E9               	clrf	_min
  3141     0D61                     l2888:
  3142                           
  3143                           ;WASHING_MACH_func.c: 259:                     sec = 21;
  3144     0D61  3015               	movlw	21
  3145     0D62  00EA               	movwf	_sec
  3146                           
  3147                           ;WASHING_MACH_func.c: 260:                     break;
  3148     0D63  2DAF               	goto	l286
  3149     0D64                     l2896:
  3150     0D64  086B               	movf	_level,w
  3151                           
  3152                           ; Switch size 1, requested type "simple"
  3153                           ; Number of cases is 5, Range of values is 0 to 4
  3154                           ; switch strategies available:
  3155                           ; Name         Instructions Cycles
  3156                           ; simple_byte           16     9 (average)
  3157                           ; direct_byte           23     8 (fixed)
  3158                           ; jumptable            260     6 (fixed)
  3159                           ;	Chosen strategy is simple_byte
  3160     0D65  3A00               	xorlw	0	; case 0
  3161     0D66  1903               	skipnz
  3162     0D67  2D60               	goto	l2886
  3163     0D68  3A01               	xorlw	1	; case 1
  3164     0D69  1903               	skipnz
  3165     0D6A  2D5C               	goto	l2882
  3166     0D6B  3A03               	xorlw	3	; case 2
  3167     0D6C  1903               	skipnz
  3168     0D6D  2D60               	goto	l2886
  3169     0D6E  3A01               	xorlw	1	; case 3
  3170     0D6F  1903               	skipnz
  3171     0D70  2CA2               	goto	l2808
  3172     0D71  3A07               	xorlw	7	; case 4
  3173     0D72  1903               	skipnz
  3174     0D73  2CA2               	goto	l2808
  3175     0D74  2DAF               	goto	l286
  3176     0D75                     l283:	
  3177                           ;WASHING_MACH_func.c: 273:                 case 3:
  3178                           
  3179     0D75  2C89               	goto	l2796
  3180     0D76                     l2904:
  3181     0D76  086B               	movf	_level,w
  3182                           
  3183                           ; Switch size 1, requested type "simple"
  3184                           ; Number of cases is 5, Range of values is 0 to 4
  3185                           ; switch strategies available:
  3186                           ; Name         Instructions Cycles
  3187                           ; simple_byte           16     9 (average)
  3188                           ; direct_byte           23     8 (fixed)
  3189                           ; jumptable            260     6 (fixed)
  3190                           ;	Chosen strategy is simple_byte
  3191     0D77  3A00               	xorlw	0	; case 0
  3192     0D78  1903               	skipnz
  3193     0D79  2C89               	goto	l2796
  3194     0D7A  3A01               	xorlw	1	; case 1
  3195     0D7B  1903               	skipnz
  3196     0D7C  2D75               	goto	l283
  3197     0D7D  3A03               	xorlw	3	; case 2
  3198     0D7E  1903               	skipnz
  3199     0D7F  2C89               	goto	l2796
  3200     0D80  3A01               	xorlw	1	; case 3
  3201     0D81  1903               	skipnz
  3202     0D82  2C89               	goto	l2796
  3203     0D83  3A07               	xorlw	7	; case 4
  3204     0D84  1903               	skipnz
  3205     0D85  2C89               	goto	l2796
  3206     0D86  2DAF               	goto	l286
  3207     0D87                     l2908:
  3208     0D87  1283               	bcf	3,5	;RP0=0, select bank0
  3209     0D88  1303               	bcf	3,6	;RP1=0, select bank0
  3210     0D89  086C               	movf	_program_index,w
  3211                           
  3212                           ; Switch size 1, requested type "simple"
  3213                           ; Number of cases is 12, Range of values is 0 to 11
  3214                           ; switch strategies available:
  3215                           ; Name         Instructions Cycles
  3216                           ; simple_byte           37    19 (average)
  3217                           ; direct_byte           44     8 (fixed)
  3218                           ; jumptable            260     6 (fixed)
  3219                           ;	Chosen strategy is simple_byte
  3220     0D8A  3A00               	xorlw	0	; case 0
  3221     0D8B  1903               	skipnz
  3222     0D8C  2C74               	goto	l2790
  3223     0D8D  3A01               	xorlw	1	; case 1
  3224     0D8E  1903               	skipnz
  3225     0D8F  2C91               	goto	l2806
  3226     0D90  3A03               	xorlw	3	; case 2
  3227     0D91  1903               	skipnz
  3228     0D92  2CAA               	goto	l2818
  3229     0D93  3A01               	xorlw	1	; case 3
  3230     0D94  1903               	skipnz
  3231     0D95  2CC0               	goto	l2822
  3232     0D96  3A07               	xorlw	7	; case 4
  3233     0D97  1903               	skipnz
  3234     0D98  2CD6               	goto	l2826
  3235     0D99  3A01               	xorlw	1	; case 5
  3236     0D9A  1903               	skipnz
  3237     0D9B  2CEB               	goto	l2838
  3238     0D9C  3A03               	xorlw	3	; case 6
  3239     0D9D  1903               	skipnz
  3240     0D9E  2D00               	goto	l2846
  3241     0D9F  3A01               	xorlw	1	; case 7
  3242     0DA0  1903               	skipnz
  3243     0DA1  2D1D               	goto	l2860
  3244     0DA2  3A0F               	xorlw	15	; case 8
  3245     0DA3  1903               	skipnz
  3246     0DA4  2D36               	goto	l2872
  3247     0DA5  3A01               	xorlw	1	; case 9
  3248     0DA6  1903               	skipnz
  3249     0DA7  2D4B               	goto	l2880
  3250     0DA8  3A03               	xorlw	3	; case 10
  3251     0DA9  1903               	skipnz
  3252     0DAA  2D64               	goto	l2896
  3253     0DAB  3A01               	xorlw	1	; case 11
  3254     0DAC  1903               	skipnz
  3255     0DAD  2D76               	goto	l2904
  3256     0DAE  2DAF               	goto	l286
  3257     0DAF                     l286:
  3258     0DAF  0008               	return
  3259     0DB0                     __end_of_set_time:
  3260                           
  3261                           	psect	text4
  3262     004C                     __ptext4:	
  3263 ;; *************** function _run_program *****************
  3264 ;; Defined at:
  3265 ;;		line 283 in file "WASHING_MACH_func.c"
  3266 ;; Parameters:    Size  Location     Type
  3267 ;;  key             1    wreg     unsigned char 
  3268 ;; Auto vars:     Size  Location     Type
  3269 ;;  key             1   64[BANK0 ] unsigned char 
  3270 ;; Return value:  Size  Location     Type
  3271 ;;                  1    wreg      void 
  3272 ;; Registers used:
  3273 ;;		wreg, fsr0l, fsr0h, status,2, status,0, btemp+1, pclath, cstack
  3274 ;; Tracked objects:
  3275 ;;		On entry : 0/0
  3276 ;;		On exit  : 0/0
  3277 ;;		Unchanged: 0/0
  3278 ;; Data sizes:     COMMON   BANK0   BANK1   BANK3   BANK2
  3279 ;;      Params:         0       0       0       0       0
  3280 ;;      Locals:         0       1       0       0       0
  3281 ;;      Temps:          0      12       0       0       0
  3282 ;;      Totals:         0      13       0       0       0
  3283 ;;Total ram usage:       13 bytes
  3284 ;; Hardware stack levels used: 1
  3285 ;; Hardware stack levels required when called: 4
  3286 ;; This function calls:
  3287 ;;		___awdiv
  3288 ;;		___awmod
  3289 ;;		___bmul
  3290 ;;		___flge
  3291 ;;		___flmul
  3292 ;;		___flsub
  3293 ;;		___fltol
  3294 ;;		___xxtofl
  3295 ;;		_clcd_print
  3296 ;;		_clcd_putch
  3297 ;;		_clear_screen
  3298 ;;		_door_status_check
  3299 ;; This function is called by:
  3300 ;;		_main
  3301 ;; This function uses a non-reentrant model
  3302 ;;
  3303                           
  3304     004C                     _run_program:	
  3305                           ;psect for function _run_program
  3306                           
  3307                           
  3308                           ;incstack = 0
  3309                           ; Regs used in _run_program: [wreg-fsr0h+status,2+status,0+btemp+1+pclath+cstack]
  3310                           ;run_program@key stored from wreg
  3311     004C  1283               	bcf	3,5	;RP0=0, select bank0
  3312     004D  1303               	bcf	3,6	;RP1=0, select bank0
  3313     004E  00E0               	movwf	run_program@key
  3314     004F                     l3526:
  3315                           
  3316                           ;WASHING_MACH_func.c: 283: void run_program(unsigned char key);WASHING_MACH_func.c: 284:
      +                           {;WASHING_MACH_func.c: 285:     door_status_check();
  3317     004F  160A  118A  26C8  120A  118A  	fcall	_door_status_check
  3318     0054                     l3528:
  3319                           
  3320                           ;WASHING_MACH_func.c: 286:     if (reset_flag == 0x55) {
  3321     0054  3055               	movlw	85
  3322     0055  1283               	bcf	3,5	;RP0=0, select bank0
  3323     0056  1303               	bcf	3,6	;RP1=0, select bank0
  3324     0057  066F               	xorwf	_reset_flag,w
  3325     0058  1D03               	btfss	3,2
  3326     0059  285B               	goto	u4481
  3327     005A  285C               	goto	u4480
  3328     005B                     u4481:
  3329     005B  2A15               	goto	l3574
  3330     005C                     u4480:
  3331     005C                     l3530:
  3332                           
  3333                           ;WASHING_MACH_func.c: 287:         clear_screen();
  3334     005C  160A  118A  2491  120A  118A  	fcall	_clear_screen
  3335     0061                     l3532:
  3336                           
  3337                           ;WASHING_MACH_func.c: 288:         clcd_print("PROG:", (0x80 + 0));
  3338     0061  3059               	movlw	low (STR_28| (0+32768))
  3339     0062  00F6               	movwf	clcd_print@str
  3340     0063  3091               	movlw	high (STR_28| (0+32768))
  3341     0064  00F7               	movwf	clcd_print@str+1
  3342     0065  3080               	movlw	128
  3343     0066  00F8               	movwf	clcd_print@addr
  3344     0067  160A  118A  254A  120A  118A  	fcall	_clcd_print
  3345     006C                     l3534:
  3346                           
  3347                           ;WASHING_MACH_func.c: 289:         clcd_print(washing_programs[program_index], (0x80 + 5
      +                          ));
  3348     006C  1283               	bcf	3,5	;RP0=0, select bank0
  3349     006D  1303               	bcf	3,6	;RP1=0, select bank0
  3350     006E  086C               	movf	_program_index,w
  3351     006F  00D4               	movwf	??_run_program
  3352     0070  0754               	addwf	??_run_program,w
  3353     0071  3EA0               	addlw	(low (_washing_programs| 0))& (0+255)
  3354     0072  0084               	movwf	4
  3355     0073  1383               	bcf	3,7	;select IRP bank1
  3356     0074  0800               	movf	0,w
  3357     0075  00F6               	movwf	clcd_print@str
  3358     0076  0A84               	incf	4,f
  3359     0077  0800               	movf	0,w
  3360     0078  0384               	decf	4,f
  3361     0079  00F7               	movwf	clcd_print@str+1
  3362     007A  3085               	movlw	133
  3363     007B  00F8               	movwf	clcd_print@addr
  3364     007C  160A  118A  254A  120A  118A  	fcall	_clcd_print
  3365     0081                     l3536:
  3366                           
  3367                           ;WASHING_MACH_func.c: 290:         clcd_print("TIME:", (0xC0 + 0));
  3368     0081  3053               	movlw	low (STR_29| (0+32768))
  3369     0082  00F6               	movwf	clcd_print@str
  3370     0083  3091               	movlw	high (STR_29| (0+32768))
  3371     0084  00F7               	movwf	clcd_print@str+1
  3372     0085  30C0               	movlw	192
  3373     0086  00F8               	movwf	clcd_print@addr
  3374     0087  160A  118A  254A  120A  118A  	fcall	_clcd_print
  3375     008C                     l3538:
  3376                           
  3377                           ;WASHING_MACH_func.c: 292:         clcd_putch(min / 10 + '0', (0xC0 + 6));
  3378     008C  30C6               	movlw	198
  3379     008D  1283               	bcf	3,5	;RP0=0, select bank0
  3380     008E  1303               	bcf	3,6	;RP1=0, select bank0
  3381     008F  00A0               	movwf	clcd_putch@addr
  3382     0090  300A               	movlw	10
  3383     0091  00F2               	movwf	___awdiv@divisor
  3384     0092  3000               	movlw	0
  3385     0093  00F3               	movwf	___awdiv@divisor+1
  3386     0094  0869               	movf	_min,w
  3387     0095  00D4               	movwf	??_run_program
  3388     0096  01D5               	clrf	??_run_program+1
  3389     0097  0854               	movf	??_run_program,w
  3390     0098  00F4               	movwf	___awdiv@dividend
  3391     0099  0855               	movf	??_run_program+1,w
  3392     009A  00F5               	movwf	___awdiv@dividend+1
  3393     009B  160A  118A  2727  120A  118A  	fcall	___awdiv
  3394     00A0  0872               	movf	?___awdiv,w
  3395     00A1  3E30               	addlw	48
  3396     00A2  160A  118A  24C8  120A  118A  	fcall	_clcd_putch
  3397     00A7                     l3540:
  3398                           
  3399                           ;WASHING_MACH_func.c: 293:         clcd_putch(min % 10 + '0', (0xC0 + 7));
  3400     00A7  30C7               	movlw	199
  3401     00A8  1283               	bcf	3,5	;RP0=0, select bank0
  3402     00A9  1303               	bcf	3,6	;RP1=0, select bank0
  3403     00AA  00A0               	movwf	clcd_putch@addr
  3404     00AB  300A               	movlw	10
  3405     00AC  00F2               	movwf	___awmod@divisor
  3406     00AD  3000               	movlw	0
  3407     00AE  00F3               	movwf	___awmod@divisor+1
  3408     00AF  0869               	movf	_min,w
  3409     00B0  00D4               	movwf	??_run_program
  3410     00B1  01D5               	clrf	??_run_program+1
  3411     00B2  0854               	movf	??_run_program,w
  3412     00B3  00F4               	movwf	___awmod@dividend
  3413     00B4  0855               	movf	??_run_program+1,w
  3414     00B5  00F5               	movwf	___awmod@dividend+1
  3415     00B6  160A  118A  2671  120A  118A  	fcall	___awmod
  3416     00BB  0872               	movf	?___awmod,w
  3417     00BC  3E30               	addlw	48
  3418     00BD  160A  118A  24C8  120A  118A  	fcall	_clcd_putch
  3419     00C2                     l3542:
  3420                           
  3421                           ;WASHING_MACH_func.c: 294:         clcd_putch(':', (0xC0 + 8));
  3422     00C2  30C8               	movlw	200
  3423     00C3  1283               	bcf	3,5	;RP0=0, select bank0
  3424     00C4  1303               	bcf	3,6	;RP1=0, select bank0
  3425     00C5  00A0               	movwf	clcd_putch@addr
  3426     00C6  303A               	movlw	58
  3427     00C7  160A  118A  24C8  120A  118A  	fcall	_clcd_putch
  3428     00CC                     l3544:
  3429                           
  3430                           ;WASHING_MACH_func.c: 295:         clcd_putch(sec / 10 + '0', (0xC0 + 9));
  3431     00CC  30C9               	movlw	201
  3432     00CD  1283               	bcf	3,5	;RP0=0, select bank0
  3433     00CE  1303               	bcf	3,6	;RP1=0, select bank0
  3434     00CF  00A0               	movwf	clcd_putch@addr
  3435     00D0  300A               	movlw	10
  3436     00D1  00F2               	movwf	___awdiv@divisor
  3437     00D2  3000               	movlw	0
  3438     00D3  00F3               	movwf	___awdiv@divisor+1
  3439     00D4  086A               	movf	_sec,w
  3440     00D5  00D4               	movwf	??_run_program
  3441     00D6  01D5               	clrf	??_run_program+1
  3442     00D7  0854               	movf	??_run_program,w
  3443     00D8  00F4               	movwf	___awdiv@dividend
  3444     00D9  0855               	movf	??_run_program+1,w
  3445     00DA  00F5               	movwf	___awdiv@dividend+1
  3446     00DB  160A  118A  2727  120A  118A  	fcall	___awdiv
  3447     00E0  0872               	movf	?___awdiv,w
  3448     00E1  3E30               	addlw	48
  3449     00E2  160A  118A  24C8  120A  118A  	fcall	_clcd_putch
  3450     00E7                     l3546:
  3451                           
  3452                           ;WASHING_MACH_func.c: 296:         clcd_putch(sec % 10 + '0', (0xC0 + 10));
  3453     00E7  30CA               	movlw	202
  3454     00E8  1283               	bcf	3,5	;RP0=0, select bank0
  3455     00E9  1303               	bcf	3,6	;RP1=0, select bank0
  3456     00EA  00A0               	movwf	clcd_putch@addr
  3457     00EB  300A               	movlw	10
  3458     00EC  00F2               	movwf	___awmod@divisor
  3459     00ED  3000               	movlw	0
  3460     00EE  00F3               	movwf	___awmod@divisor+1
  3461     00EF  086A               	movf	_sec,w
  3462     00F0  00D4               	movwf	??_run_program
  3463     00F1  01D5               	clrf	??_run_program+1
  3464     00F2  0854               	movf	??_run_program,w
  3465     00F3  00F4               	movwf	___awmod@dividend
  3466     00F4  0855               	movf	??_run_program+1,w
  3467     00F5  00F5               	movwf	___awmod@dividend+1
  3468     00F6  160A  118A  2671  120A  118A  	fcall	___awmod
  3469     00FB  0872               	movf	?___awmod,w
  3470     00FC  3E30               	addlw	48
  3471     00FD  160A  118A  24C8  120A  118A  	fcall	_clcd_putch
  3472     0102                     l3548:
  3473                           
  3474                           ;WASHING_MACH_func.c: 298:         reset_flag = 0x88;
  3475     0102  3088               	movlw	136
  3476     0103  1283               	bcf	3,5	;RP0=0, select bank0
  3477     0104  1303               	bcf	3,6	;RP1=0, select bank0
  3478     0105  00EF               	movwf	_reset_flag
  3479     0106                     l3550:
  3480                           
  3481                           ;WASHING_MACH_func.c: 300:         _delay((unsigned long)((5000)*(20000000/4000.0)));
  3482     0106  307F               	movlw	127
  3483     0107  1283               	bcf	3,5	;RP0=0, select bank0
  3484     0108  1303               	bcf	3,6	;RP1=0, select bank0
  3485     0109  00D6               	movwf	??_run_program+2
  3486     010A  30D4               	movlw	212
  3487     010B  00D5               	movwf	??_run_program+1
  3488     010C  3031               	movlw	49
  3489     010D  00D4               	movwf	??_run_program
  3490     010E                     u4717:
  3491     010E  0BD4               	decfsz	??_run_program,f
  3492     010F  290E               	goto	u4717
  3493     0110  0BD5               	decfsz	??_run_program+1,f
  3494     0111  290E               	goto	u4717
  3495     0112  0BD6               	decfsz	??_run_program+2,f
  3496     0113  290E               	goto	u4717
  3497     0114                     l3552:
  3498                           
  3499                           ;WASHING_MACH_func.c: 301:         clear_screen();
  3500     0114  160A  118A  2491  120A  118A  	fcall	_clear_screen
  3501     0119                     l3554:
  3502                           
  3503                           ;WASHING_MACH_func.c: 302:         clcd_print("Function:", (0x80 + 0));
  3504     0119  30DA               	movlw	low (STR_30| (0+32768))
  3505     011A  00F6               	movwf	clcd_print@str
  3506     011B  3090               	movlw	high (STR_30| (0+32768))
  3507     011C  00F7               	movwf	clcd_print@str+1
  3508     011D  3080               	movlw	128
  3509     011E  00F8               	movwf	clcd_print@addr
  3510     011F  160A  118A  254A  120A  118A  	fcall	_clcd_print
  3511     0124                     l3556:
  3512                           
  3513                           ;WASHING_MACH_func.c: 303:         clcd_print("Time:", (0xC0 + 0));
  3514     0124  305F               	movlw	low (STR_31| (0+32768))
  3515     0125  00F6               	movwf	clcd_print@str
  3516     0126  3091               	movlw	high (STR_31| (0+32768))
  3517     0127  00F7               	movwf	clcd_print@str+1
  3518     0128  30C0               	movlw	192
  3519     0129  00F8               	movwf	clcd_print@addr
  3520     012A  160A  118A  254A  120A  118A  	fcall	_clcd_print
  3521     012F                     l3558:
  3522                           
  3523                           ;WASHING_MACH_func.c: 305:         clcd_print("RB4:START", (0x90 + 0));
  3524     012F  30EE               	movlw	low (STR_32| (0+32768))
  3525     0130  00F6               	movwf	clcd_print@str
  3526     0131  3090               	movlw	high (STR_32| (0+32768))
  3527     0132  00F7               	movwf	clcd_print@str+1
  3528     0133  3090               	movlw	144
  3529     0134  00F8               	movwf	clcd_print@addr
  3530     0135  160A  118A  254A  120A  118A  	fcall	_clcd_print
  3531     013A                     l3560:
  3532                           
  3533                           ;WASHING_MACH_func.c: 306:         clcd_print("RB5:PAUSE", (0xD0 + 0));
  3534     013A  30E4               	movlw	low (STR_33| (0+32768))
  3535     013B  00F6               	movwf	clcd_print@str
  3536     013C  3090               	movlw	high (STR_33| (0+32768))
  3537     013D  00F7               	movwf	clcd_print@str+1
  3538     013E  30D0               	movlw	208
  3539     013F  00F8               	movwf	clcd_print@addr
  3540     0140  160A  118A  254A  120A  118A  	fcall	_clcd_print
  3541     0145                     l3562:
  3542                           
  3543                           ;WASHING_MACH_func.c: 309:         Total_time = Time = min * 60 + sec;
  3544     0145  303C               	movlw	60
  3545     0146  00F2               	movwf	___bmul@multiplicand
  3546     0147  1283               	bcf	3,5	;RP0=0, select bank0
  3547     0148  1303               	bcf	3,6	;RP1=0, select bank0
  3548     0149  0869               	movf	_min,w
  3549     014A  160A  118A  24A2  120A  118A  	fcall	___bmul
  3550     014F  1283               	bcf	3,5	;RP0=0, select bank0
  3551     0150  1303               	bcf	3,6	;RP1=0, select bank0
  3552     0151  076A               	addwf	_sec,w
  3553     0152  00E6               	movwf	_Time
  3554     0153  00E8               	movwf	_Total_time
  3555     0154                     l3564:
  3556                           
  3557                           ;WASHING_MACH_func.c: 310:         Wash_time = (int) Total_time * 0.46;
  3558     0154  0868               	movf	_Total_time,w
  3559     0155  00D4               	movwf	??_run_program
  3560     0156  01D5               	clrf	??_run_program+1
  3561     0157  01D6               	clrf	??_run_program+2
  3562     0158  01D7               	clrf	??_run_program+3
  3563     0159  0857               	movf	??_run_program+3,w
  3564     015A  00F5               	movwf	___xxtofl@val+3
  3565     015B  0856               	movf	??_run_program+2,w
  3566     015C  00F4               	movwf	___xxtofl@val+2
  3567     015D  0855               	movf	??_run_program+1,w
  3568     015E  00F3               	movwf	___xxtofl@val+1
  3569     015F  0854               	movf	??_run_program,w
  3570     0160  00F2               	movwf	___xxtofl@val
  3571     0161  3001               	movlw	1
  3572     0162  120A  158A  20C6  120A  118A  	fcall	___xxtofl
  3573     0167  0875               	movf	?___xxtofl+3,w
  3574     0168  1283               	bcf	3,5	;RP0=0, select bank0
  3575     0169  1303               	bcf	3,6	;RP1=0, select bank0
  3576     016A  00AD               	movwf	___flmul@a+3
  3577     016B  0874               	movf	?___xxtofl+2,w
  3578     016C  00AC               	movwf	___flmul@a+2
  3579     016D  0873               	movf	?___xxtofl+1,w
  3580     016E  00AB               	movwf	___flmul@a+1
  3581     016F  0872               	movf	?___xxtofl,w
  3582     0170  00AA               	movwf	___flmul@a
  3583     0171  303E               	movlw	62
  3584     0172  00A9               	movwf	___flmul@b+3
  3585     0173  30EB               	movlw	235
  3586     0174  00A8               	movwf	___flmul@b+2
  3587     0175  3085               	movlw	133
  3588     0176  00A7               	movwf	___flmul@b+1
  3589     0177  301F               	movlw	31
  3590     0178  00A6               	movwf	___flmul@b
  3591     0179  120A  118A  2421  120A  118A  	fcall	___flmul
  3592     017E  1283               	bcf	3,5	;RP0=0, select bank0
  3593     017F  1303               	bcf	3,6	;RP1=0, select bank0
  3594     0180  0829               	movf	?___flmul+3,w
  3595     0181  00C3               	movwf	___fltol@f1+3
  3596     0182  0828               	movf	?___flmul+2,w
  3597     0183  00C2               	movwf	___fltol@f1+2
  3598     0184  0827               	movf	?___flmul+1,w
  3599     0185  00C1               	movwf	___fltol@f1+1
  3600     0186  0826               	movf	?___flmul,w
  3601     0187  00C0               	movwf	___fltol@f1
  3602     0188  160A  118A  278A  120A  118A  	fcall	___fltol
  3603     018D  1283               	bcf	3,5	;RP0=0, select bank0
  3604     018E  1303               	bcf	3,6	;RP1=0, select bank0
  3605     018F  0840               	movf	?___fltol,w
  3606     0190  00E7               	movwf	_Wash_time
  3607     0191                     l3566:
  3608                           
  3609                           ;WASHING_MACH_func.c: 311:         Rinse_time = (int) Total_time * 0.12;
  3610     0191  0868               	movf	_Total_time,w
  3611     0192  00D4               	movwf	??_run_program
  3612     0193  01D5               	clrf	??_run_program+1
  3613     0194  01D6               	clrf	??_run_program+2
  3614     0195  01D7               	clrf	??_run_program+3
  3615     0196  0857               	movf	??_run_program+3,w
  3616     0197  00F5               	movwf	___xxtofl@val+3
  3617     0198  0856               	movf	??_run_program+2,w
  3618     0199  00F4               	movwf	___xxtofl@val+2
  3619     019A  0855               	movf	??_run_program+1,w
  3620     019B  00F3               	movwf	___xxtofl@val+1
  3621     019C  0854               	movf	??_run_program,w
  3622     019D  00F2               	movwf	___xxtofl@val
  3623     019E  3001               	movlw	1
  3624     019F  120A  158A  20C6  120A  118A  	fcall	___xxtofl
  3625     01A4  0875               	movf	?___xxtofl+3,w
  3626     01A5  1283               	bcf	3,5	;RP0=0, select bank0
  3627     01A6  1303               	bcf	3,6	;RP1=0, select bank0
  3628     01A7  00AD               	movwf	___flmul@a+3
  3629     01A8  0874               	movf	?___xxtofl+2,w
  3630     01A9  00AC               	movwf	___flmul@a+2
  3631     01AA  0873               	movf	?___xxtofl+1,w
  3632     01AB  00AB               	movwf	___flmul@a+1
  3633     01AC  0872               	movf	?___xxtofl,w
  3634     01AD  00AA               	movwf	___flmul@a
  3635     01AE  303D               	movlw	61
  3636     01AF  00A9               	movwf	___flmul@b+3
  3637     01B0  30F5               	movlw	245
  3638     01B1  00A8               	movwf	___flmul@b+2
  3639     01B2  30C2               	movlw	194
  3640     01B3  00A7               	movwf	___flmul@b+1
  3641     01B4  308F               	movlw	143
  3642     01B5  00A6               	movwf	___flmul@b
  3643     01B6  120A  118A  2421  120A  118A  	fcall	___flmul
  3644     01BB  1283               	bcf	3,5	;RP0=0, select bank0
  3645     01BC  1303               	bcf	3,6	;RP1=0, select bank0
  3646     01BD  0829               	movf	?___flmul+3,w
  3647     01BE  00C3               	movwf	___fltol@f1+3
  3648     01BF  0828               	movf	?___flmul+2,w
  3649     01C0  00C2               	movwf	___fltol@f1+2
  3650     01C1  0827               	movf	?___flmul+1,w
  3651     01C2  00C1               	movwf	___fltol@f1+1
  3652     01C3  0826               	movf	?___flmul,w
  3653     01C4  00C0               	movwf	___fltol@f1
  3654     01C5  160A  118A  278A  120A  118A  	fcall	___fltol
  3655     01CA  1283               	bcf	3,5	;RP0=0, select bank0
  3656     01CB  1303               	bcf	3,6	;RP1=0, select bank0
  3657     01CC  0840               	movf	?___fltol,w
  3658     01CD  1683               	bsf	3,5	;RP0=1, select bank1
  3659     01CE  1303               	bcf	3,6	;RP1=0, select bank1
  3660     01CF  00C8               	movwf	_Rinse_time^(0+128)
  3661     01D0                     l3568:
  3662                           
  3663                           ;WASHING_MACH_func.c: 312:         Spin_time = (int) Total_time * 0.42;
  3664     01D0  1283               	bcf	3,5	;RP0=0, select bank0
  3665     01D1  1303               	bcf	3,6	;RP1=0, select bank0
  3666     01D2  0868               	movf	_Total_time,w
  3667     01D3  00D4               	movwf	??_run_program
  3668     01D4  01D5               	clrf	??_run_program+1
  3669     01D5  01D6               	clrf	??_run_program+2
  3670     01D6  01D7               	clrf	??_run_program+3
  3671     01D7  0857               	movf	??_run_program+3,w
  3672     01D8  00F5               	movwf	___xxtofl@val+3
  3673     01D9  0856               	movf	??_run_program+2,w
  3674     01DA  00F4               	movwf	___xxtofl@val+2
  3675     01DB  0855               	movf	??_run_program+1,w
  3676     01DC  00F3               	movwf	___xxtofl@val+1
  3677     01DD  0854               	movf	??_run_program,w
  3678     01DE  00F2               	movwf	___xxtofl@val
  3679     01DF  3001               	movlw	1
  3680     01E0  120A  158A  20C6  120A  118A  	fcall	___xxtofl
  3681     01E5  0875               	movf	?___xxtofl+3,w
  3682     01E6  1283               	bcf	3,5	;RP0=0, select bank0
  3683     01E7  1303               	bcf	3,6	;RP1=0, select bank0
  3684     01E8  00AD               	movwf	___flmul@a+3
  3685     01E9  0874               	movf	?___xxtofl+2,w
  3686     01EA  00AC               	movwf	___flmul@a+2
  3687     01EB  0873               	movf	?___xxtofl+1,w
  3688     01EC  00AB               	movwf	___flmul@a+1
  3689     01ED  0872               	movf	?___xxtofl,w
  3690     01EE  00AA               	movwf	___flmul@a
  3691     01EF  303E               	movlw	62
  3692     01F0  00A9               	movwf	___flmul@b+3
  3693     01F1  30D7               	movlw	215
  3694     01F2  00A8               	movwf	___flmul@b+2
  3695     01F3  300A               	movlw	10
  3696     01F4  00A7               	movwf	___flmul@b+1
  3697     01F5  303D               	movlw	61
  3698     01F6  00A6               	movwf	___flmul@b
  3699     01F7  120A  118A  2421  120A  118A  	fcall	___flmul
  3700     01FC  1283               	bcf	3,5	;RP0=0, select bank0
  3701     01FD  1303               	bcf	3,6	;RP1=0, select bank0
  3702     01FE  0829               	movf	?___flmul+3,w
  3703     01FF  00C3               	movwf	___fltol@f1+3
  3704     0200  0828               	movf	?___flmul+2,w
  3705     0201  00C2               	movwf	___fltol@f1+2
  3706     0202  0827               	movf	?___flmul+1,w
  3707     0203  00C1               	movwf	___fltol@f1+1
  3708     0204  0826               	movf	?___flmul,w
  3709     0205  00C0               	movwf	___fltol@f1
  3710     0206  160A  118A  278A  120A  118A  	fcall	___fltol
  3711     020B  1283               	bcf	3,5	;RP0=0, select bank0
  3712     020C  1303               	bcf	3,6	;RP1=0, select bank0
  3713     020D  0840               	movf	?___fltol,w
  3714     020E  1683               	bsf	3,5	;RP0=1, select bank1
  3715     020F  1303               	bcf	3,6	;RP1=0, select bank1
  3716     0210  00C7               	movwf	_Spin_time^(0+128)
  3717     0211                     l3570:
  3718                           
  3719                           ;WASHING_MACH_func.c: 314:         TMR2ON = 1;
  3720     0211  1283               	bcf	3,5	;RP0=0, select bank0
  3721     0212  1303               	bcf	3,6	;RP1=0, select bank0
  3722     0213  1512               	bsf	18,2	;volatile
  3723     0214                     l3572:
  3724                           
  3725                           ;WASHING_MACH_func.c: 315:         RC2 = 1 ;
  3726     0214  1507               	bsf	7,2	;volatile
  3727     0215                     l3574:
  3728                           
  3729                           ;WASHING_MACH_func.c: 317:     if(key == 0x1F)
  3730     0215  301F               	movlw	31
  3731     0216  0660               	xorwf	run_program@key,w
  3732     0217  1D03               	btfss	3,2
  3733     0218  2A1A               	goto	u4491
  3734     0219  2A1B               	goto	u4490
  3735     021A                     u4491:
  3736     021A  2A1F               	goto	l3578
  3737     021B                     u4490:
  3738     021B                     l3576:
  3739                           
  3740                           ;WASHING_MACH_func.c: 318:     {;WASHING_MACH_func.c: 319:         TMR2ON = 0;
  3741     021B  1112               	bcf	18,2	;volatile
  3742                           
  3743                           ;WASHING_MACH_func.c: 320:         RC2 = 0 ;
  3744     021C  1107               	bcf	7,2	;volatile
  3745                           
  3746                           ;WASHING_MACH_func.c: 321:         operational_mode = 0x77 ;
  3747     021D  3077               	movlw	119
  3748     021E  00EE               	movwf	_operational_mode
  3749     021F                     l3578:
  3750                           
  3751                           ;WASHING_MACH_func.c: 323:     Total_time = min * 60 + sec;
  3752     021F  303C               	movlw	60
  3753     0220  00F2               	movwf	___bmul@multiplicand
  3754     0221  0869               	movf	_min,w
  3755     0222  160A  118A  24A2  120A  118A  	fcall	___bmul
  3756     0227  1283               	bcf	3,5	;RP0=0, select bank0
  3757     0228  1303               	bcf	3,6	;RP1=0, select bank0
  3758     0229  076A               	addwf	_sec,w
  3759     022A  00E8               	movwf	_Total_time
  3760     022B                     l3580:
  3761                           
  3762                           ;WASHING_MACH_func.c: 324:     if( program_index <= 7)
  3763     022B  3008               	movlw	8
  3764     022C  026C               	subwf	_program_index,w
  3765     022D  1803               	skipnc
  3766     022E  2A30               	goto	u4501
  3767     022F  2A31               	goto	u4500
  3768     0230                     u4501:
  3769     0230  2A8C               	goto	l3592
  3770     0231                     u4500:
  3771     0231                     l3582:
  3772                           
  3773                           ;WASHING_MACH_func.c: 325:     {;WASHING_MACH_func.c: 326:         if(Total_time >= (Tim
      +                          e - Wash_time)){
  3774     0231  0866               	movf	_Time,w
  3775     0232  00D4               	movwf	??_run_program
  3776     0233  01D5               	clrf	??_run_program+1
  3777     0234  0855               	movf	??_run_program+1,w
  3778     0235  00D7               	movwf	??_run_program+3
  3779     0236  0867               	movf	_Wash_time,w
  3780     0237  0254               	subwf	??_run_program,w
  3781     0238  00D6               	movwf	??_run_program+2
  3782     0239  1C03               	skipc
  3783     023A  03D7               	decf	??_run_program+3,f
  3784     023B  0857               	movf	??_run_program+3,w
  3785     023C  3A80               	xorlw	128
  3786     023D  3C80               	sublw	128
  3787     023E  1D03               	skipz
  3788     023F  2A42               	goto	u4515
  3789     0240  0856               	movf	??_run_program+2,w
  3790     0241  0268               	subwf	_Total_time,w
  3791     0242                     u4515:
  3792     0242  1C03               	skipc
  3793     0243  2A45               	goto	u4511
  3794     0244  2A46               	goto	u4510
  3795     0245                     u4511:
  3796     0245  2A52               	goto	l3586
  3797     0246                     u4510:
  3798     0246                     l3584:
  3799                           
  3800                           ;WASHING_MACH_func.c: 327:             clcd_print("WASH ",(0x80 + 10));
  3801     0246  3047               	movlw	low (STR_34| (0+32768))
  3802     0247  00F6               	movwf	clcd_print@str
  3803     0248  3091               	movlw	high (STR_34| (0+32768))
  3804     0249  00F7               	movwf	clcd_print@str+1
  3805     024A  308A               	movlw	138
  3806     024B  00F8               	movwf	clcd_print@addr
  3807     024C  160A  118A  254A  120A  118A  	fcall	_clcd_print
  3808                           
  3809                           ;WASHING_MACH_func.c: 328:         }
  3810     0251  2B65               	goto	l3612
  3811     0252                     l3586:
  3812     0252  1283               	bcf	3,5	;RP0=0, select bank0
  3813     0253  1303               	bcf	3,6	;RP1=0, select bank0
  3814     0254  0866               	movf	_Time,w
  3815     0255  00D4               	movwf	??_run_program
  3816     0256  01D5               	clrf	??_run_program+1
  3817     0257  0855               	movf	??_run_program+1,w
  3818     0258  00D7               	movwf	??_run_program+3
  3819     0259  0867               	movf	_Wash_time,w
  3820     025A  0254               	subwf	??_run_program,w
  3821     025B  00D6               	movwf	??_run_program+2
  3822     025C  1C03               	skipc
  3823     025D  03D7               	decf	??_run_program+3,f
  3824     025E  0857               	movf	??_run_program+3,w
  3825     025F  00D9               	movwf	??_run_program+5
  3826     0260  1683               	bsf	3,5	;RP0=1, select bank1
  3827     0261  1303               	bcf	3,6	;RP1=0, select bank1
  3828     0262  0847               	movf	_Spin_time^(0+128),w
  3829     0263  1283               	bcf	3,5	;RP0=0, select bank0
  3830     0264  1303               	bcf	3,6	;RP1=0, select bank0
  3831     0265  0256               	subwf	??_run_program+2,w
  3832     0266  00D8               	movwf	??_run_program+4
  3833     0267  1C03               	skipc
  3834     0268  03D9               	decf	??_run_program+5,f
  3835     0269  0859               	movf	??_run_program+5,w
  3836     026A  3A80               	xorlw	128
  3837     026B  3C80               	sublw	128
  3838     026C  1D03               	skipz
  3839     026D  2A70               	goto	u4525
  3840     026E  0858               	movf	??_run_program+4,w
  3841     026F  0268               	subwf	_Total_time,w
  3842     0270                     u4525:
  3843     0270  1C03               	skipc
  3844     0271  2A73               	goto	u4521
  3845     0272  2A74               	goto	u4520
  3846     0273                     u4521:
  3847     0273  2A80               	goto	l3590
  3848     0274                     u4520:
  3849     0274                     l3588:
  3850                           
  3851                           ;WASHING_MACH_func.c: 330:             clcd_print("RINSE",(0x80 + 10));
  3852     0274  3065               	movlw	low (STR_35| (0+32768))
  3853     0275  00F6               	movwf	clcd_print@str
  3854     0276  3091               	movlw	high (STR_35| (0+32768))
  3855     0277  00F7               	movwf	clcd_print@str+1
  3856     0278  308A               	movlw	138
  3857     0279  00F8               	movwf	clcd_print@addr
  3858     027A  160A  118A  254A  120A  118A  	fcall	_clcd_print
  3859                           
  3860                           ;WASHING_MACH_func.c: 331:         }
  3861     027F  2B65               	goto	l3612
  3862     0280                     l3590:
  3863                           
  3864                           ;WASHING_MACH_func.c: 333:             clcd_print("SPIN ",(0x80 + 10));
  3865     0280  304D               	movlw	low (STR_36| (0+32768))
  3866     0281  00F6               	movwf	clcd_print@str
  3867     0282  3091               	movlw	high (STR_36| (0+32768))
  3868     0283  00F7               	movwf	clcd_print@str+1
  3869     0284  308A               	movlw	138
  3870     0285  00F8               	movwf	clcd_print@addr
  3871     0286  160A  118A  254A  120A  118A  	fcall	_clcd_print
  3872     028B  2B65               	goto	l3612
  3873     028C                     l3592:
  3874     028C  3008               	movlw	8
  3875     028D  066C               	xorwf	_program_index,w
  3876     028E  1D03               	btfss	3,2
  3877     028F  2A91               	goto	u4531
  3878     0290  2A92               	goto	u4530
  3879     0291                     u4531:
  3880     0291  2B30               	goto	l3600
  3881     0292                     u4530:
  3882     0292                     l3594:
  3883                           
  3884                           ;WASHING_MACH_func.c: 337:     {;WASHING_MACH_func.c: 338:         if(Total_time >= (Tim
      +                          e - 0.40* Time)){
  3885     0292  0868               	movf	_Total_time,w
  3886     0293  00D4               	movwf	??_run_program
  3887     0294  01D5               	clrf	??_run_program+1
  3888     0295  01D6               	clrf	??_run_program+2
  3889     0296  01D7               	clrf	??_run_program+3
  3890     0297  0857               	movf	??_run_program+3,w
  3891     0298  00F5               	movwf	___xxtofl@val+3
  3892     0299  0856               	movf	??_run_program+2,w
  3893     029A  00F4               	movwf	___xxtofl@val+2
  3894     029B  0855               	movf	??_run_program+1,w
  3895     029C  00F3               	movwf	___xxtofl@val+1
  3896     029D  0854               	movf	??_run_program,w
  3897     029E  00F2               	movwf	___xxtofl@val
  3898     029F  3001               	movlw	1
  3899     02A0  120A  158A  20C6  120A  118A  	fcall	___xxtofl
  3900     02A5  0875               	movf	?___xxtofl+3,w
  3901     02A6  1283               	bcf	3,5	;RP0=0, select bank0
  3902     02A7  1303               	bcf	3,6	;RP1=0, select bank0
  3903     02A8  00CB               	movwf	___flge@ff1+3
  3904     02A9  0874               	movf	?___xxtofl+2,w
  3905     02AA  00CA               	movwf	___flge@ff1+2
  3906     02AB  0873               	movf	?___xxtofl+1,w
  3907     02AC  00C9               	movwf	___flge@ff1+1
  3908     02AD  0872               	movf	?___xxtofl,w
  3909     02AE  00C8               	movwf	___flge@ff1
  3910     02AF  0866               	movf	_Time,w
  3911     02B0  00D8               	movwf	??_run_program+4
  3912     02B1  01D9               	clrf	??_run_program+5
  3913     02B2  01DA               	clrf	??_run_program+6
  3914     02B3  01DB               	clrf	??_run_program+7
  3915     02B4  085B               	movf	??_run_program+7,w
  3916     02B5  00F5               	movwf	___xxtofl@val+3
  3917     02B6  085A               	movf	??_run_program+6,w
  3918     02B7  00F4               	movwf	___xxtofl@val+2
  3919     02B8  0859               	movf	??_run_program+5,w
  3920     02B9  00F3               	movwf	___xxtofl@val+1
  3921     02BA  0858               	movf	??_run_program+4,w
  3922     02BB  00F2               	movwf	___xxtofl@val
  3923     02BC  3001               	movlw	1
  3924     02BD  120A  158A  20C6  120A  118A  	fcall	___xxtofl
  3925     02C2  0875               	movf	?___xxtofl+3,w
  3926     02C3  1283               	bcf	3,5	;RP0=0, select bank0
  3927     02C4  1303               	bcf	3,6	;RP1=0, select bank0
  3928     02C5  00C7               	movwf	___flsub@b+3
  3929     02C6  0874               	movf	?___xxtofl+2,w
  3930     02C7  00C6               	movwf	___flsub@b+2
  3931     02C8  0873               	movf	?___xxtofl+1,w
  3932     02C9  00C5               	movwf	___flsub@b+1
  3933     02CA  0872               	movf	?___xxtofl,w
  3934     02CB  00C4               	movwf	___flsub@b
  3935     02CC  0866               	movf	_Time,w
  3936     02CD  00DC               	movwf	??_run_program+8
  3937     02CE  01DD               	clrf	??_run_program+9
  3938     02CF  01DE               	clrf	??_run_program+10
  3939     02D0  01DF               	clrf	??_run_program+11
  3940     02D1  085F               	movf	??_run_program+11,w
  3941     02D2  00F5               	movwf	___xxtofl@val+3
  3942     02D3  085E               	movf	??_run_program+10,w
  3943     02D4  00F4               	movwf	___xxtofl@val+2
  3944     02D5  085D               	movf	??_run_program+9,w
  3945     02D6  00F3               	movwf	___xxtofl@val+1
  3946     02D7  085C               	movf	??_run_program+8,w
  3947     02D8  00F2               	movwf	___xxtofl@val
  3948     02D9  3001               	movlw	1
  3949     02DA  120A  158A  20C6  120A  118A  	fcall	___xxtofl
  3950     02DF  0875               	movf	?___xxtofl+3,w
  3951     02E0  1283               	bcf	3,5	;RP0=0, select bank0
  3952     02E1  1303               	bcf	3,6	;RP1=0, select bank0
  3953     02E2  00AD               	movwf	___flmul@a+3
  3954     02E3  0874               	movf	?___xxtofl+2,w
  3955     02E4  00AC               	movwf	___flmul@a+2
  3956     02E5  0873               	movf	?___xxtofl+1,w
  3957     02E6  00AB               	movwf	___flmul@a+1
  3958     02E7  0872               	movf	?___xxtofl,w
  3959     02E8  00AA               	movwf	___flmul@a
  3960     02E9  303E               	movlw	62
  3961     02EA  00A9               	movwf	___flmul@b+3
  3962     02EB  30CC               	movlw	204
  3963     02EC  00A8               	movwf	___flmul@b+2
  3964     02ED  30CC               	movlw	204
  3965     02EE  00A7               	movwf	___flmul@b+1
  3966     02EF  30CD               	movlw	205
  3967     02F0  00A6               	movwf	___flmul@b
  3968     02F1  120A  118A  2421  120A  118A  	fcall	___flmul
  3969     02F6  1283               	bcf	3,5	;RP0=0, select bank0
  3970     02F7  1303               	bcf	3,6	;RP1=0, select bank0
  3971     02F8  0829               	movf	?___flmul+3,w
  3972     02F9  00C3               	movwf	___flsub@a+3
  3973     02FA  0828               	movf	?___flmul+2,w
  3974     02FB  00C2               	movwf	___flsub@a+2
  3975     02FC  0827               	movf	?___flmul+1,w
  3976     02FD  00C1               	movwf	___flsub@a+1
  3977     02FE  0826               	movf	?___flmul,w
  3978     02FF  00C0               	movwf	___flsub@a
  3979     0300  160A  118A  24FD  120A  118A  	fcall	___flsub
  3980     0305  1283               	bcf	3,5	;RP0=0, select bank0
  3981     0306  1303               	bcf	3,6	;RP1=0, select bank0
  3982     0307  0843               	movf	?___flsub+3,w
  3983     0308  00CF               	movwf	___flge@ff2+3
  3984     0309  0842               	movf	?___flsub+2,w
  3985     030A  00CE               	movwf	___flge@ff2+2
  3986     030B  0841               	movf	?___flsub+1,w
  3987     030C  00CD               	movwf	___flge@ff2+1
  3988     030D  0840               	movf	?___flsub,w
  3989     030E  00CC               	movwf	___flge@ff2
  3990     030F  120A  158A  2022  120A  118A  	fcall	___flge
  3991     0314  1C03               	btfss	3,0
  3992     0315  2B17               	goto	u4541
  3993     0316  2B18               	goto	u4540
  3994     0317                     u4541:
  3995     0317  2B24               	goto	l3598
  3996     0318                     u4540:
  3997     0318                     l3596:
  3998                           
  3999                           ;WASHING_MACH_func.c: 339:             clcd_print("RINSE",(0x80 + 10));
  4000     0318  3065               	movlw	low (STR_35| (0+32768))
  4001     0319  00F6               	movwf	clcd_print@str
  4002     031A  3091               	movlw	high (STR_35| (0+32768))
  4003     031B  00F7               	movwf	clcd_print@str+1
  4004     031C  308A               	movlw	138
  4005     031D  00F8               	movwf	clcd_print@addr
  4006     031E  160A  118A  254A  120A  118A  	fcall	_clcd_print
  4007                           
  4008                           ;WASHING_MACH_func.c: 340:         }
  4009     0323  2B65               	goto	l3612
  4010     0324                     l3598:
  4011                           
  4012                           ;WASHING_MACH_func.c: 342:             clcd_print("SPIN ",(0x80 + 10));
  4013     0324  304D               	movlw	low (STR_36| (0+32768))
  4014     0325  00F6               	movwf	clcd_print@str
  4015     0326  3091               	movlw	high (STR_36| (0+32768))
  4016     0327  00F7               	movwf	clcd_print@str+1
  4017     0328  308A               	movlw	138
  4018     0329  00F8               	movwf	clcd_print@addr
  4019     032A  160A  118A  254A  120A  118A  	fcall	_clcd_print
  4020     032F  2B65               	goto	l3612
  4021     0330                     l3600:
  4022     0330  3009               	movlw	9
  4023     0331  066C               	xorwf	_program_index,w
  4024     0332  1D03               	btfss	3,2
  4025     0333  2B35               	goto	u4551
  4026     0334  2B36               	goto	u4550
  4027     0335                     u4551:
  4028     0335  2B42               	goto	l3604
  4029     0336                     u4550:
  4030     0336                     l3602:
  4031                           
  4032                           ;WASHING_MACH_func.c: 346:         clcd_print("SPIN ",(0x80 + 10));
  4033     0336  304D               	movlw	low (STR_36| (0+32768))
  4034     0337  00F6               	movwf	clcd_print@str
  4035     0338  3091               	movlw	high (STR_36| (0+32768))
  4036     0339  00F7               	movwf	clcd_print@str+1
  4037     033A  308A               	movlw	138
  4038     033B  00F8               	movwf	clcd_print@addr
  4039     033C  160A  118A  254A  120A  118A  	fcall	_clcd_print
  4040                           
  4041                           ;WASHING_MACH_func.c: 347:     }
  4042     0341  2B65               	goto	l3612
  4043     0342                     l3604:
  4044     0342  300A               	movlw	10
  4045     0343  066C               	xorwf	_program_index,w
  4046     0344  1D03               	btfss	3,2
  4047     0345  2B47               	goto	u4561
  4048     0346  2B48               	goto	u4560
  4049     0347                     u4561:
  4050     0347  2B54               	goto	l3608
  4051     0348                     u4560:
  4052     0348                     l3606:
  4053                           
  4054                           ;WASHING_MACH_func.c: 349:         clcd_print("WASH ",(0x80 + 10));
  4055     0348  3047               	movlw	low (STR_34| (0+32768))
  4056     0349  00F6               	movwf	clcd_print@str
  4057     034A  3091               	movlw	high (STR_34| (0+32768))
  4058     034B  00F7               	movwf	clcd_print@str+1
  4059     034C  308A               	movlw	138
  4060     034D  00F8               	movwf	clcd_print@addr
  4061     034E  160A  118A  254A  120A  118A  	fcall	_clcd_print
  4062                           
  4063                           ;WASHING_MACH_func.c: 350:     }
  4064     0353  2B65               	goto	l3612
  4065     0354                     l3608:
  4066     0354  300B               	movlw	11
  4067     0355  066C               	xorwf	_program_index,w
  4068     0356  1D03               	btfss	3,2
  4069     0357  2B59               	goto	u4571
  4070     0358  2B5A               	goto	u4570
  4071     0359                     u4571:
  4072     0359  2B65               	goto	l3612
  4073     035A                     u4570:
  4074     035A                     l3610:
  4075                           
  4076                           ;WASHING_MACH_func.c: 352:         clcd_print("RINSE",(0x80 + 10));
  4077     035A  3065               	movlw	low (STR_35| (0+32768))
  4078     035B  00F6               	movwf	clcd_print@str
  4079     035C  3091               	movlw	high (STR_35| (0+32768))
  4080     035D  00F7               	movwf	clcd_print@str+1
  4081     035E  308A               	movlw	138
  4082     035F  00F8               	movwf	clcd_print@addr
  4083     0360  160A  118A  254A  120A  118A  	fcall	_clcd_print
  4084     0365                     l3612:
  4085                           
  4086                           ;WASHING_MACH_func.c: 355:     clcd_putch(min / 10 + '0', (0xC0 + 6));
  4087     0365  30C6               	movlw	198
  4088     0366  1283               	bcf	3,5	;RP0=0, select bank0
  4089     0367  1303               	bcf	3,6	;RP1=0, select bank0
  4090     0368  00A0               	movwf	clcd_putch@addr
  4091     0369  300A               	movlw	10
  4092     036A  00F2               	movwf	___awdiv@divisor
  4093     036B  3000               	movlw	0
  4094     036C  00F3               	movwf	___awdiv@divisor+1
  4095     036D  0869               	movf	_min,w
  4096     036E  00D4               	movwf	??_run_program
  4097     036F  01D5               	clrf	??_run_program+1
  4098     0370  0854               	movf	??_run_program,w
  4099     0371  00F4               	movwf	___awdiv@dividend
  4100     0372  0855               	movf	??_run_program+1,w
  4101     0373  00F5               	movwf	___awdiv@dividend+1
  4102     0374  160A  118A  2727  120A  118A  	fcall	___awdiv
  4103     0379  0872               	movf	?___awdiv,w
  4104     037A  3E30               	addlw	48
  4105     037B  160A  118A  24C8  120A  118A  	fcall	_clcd_putch
  4106     0380                     l3614:
  4107                           
  4108                           ;WASHING_MACH_func.c: 356:     clcd_putch(min % 10 + '0', (0xC0 + 7));
  4109     0380  30C7               	movlw	199
  4110     0381  1283               	bcf	3,5	;RP0=0, select bank0
  4111     0382  1303               	bcf	3,6	;RP1=0, select bank0
  4112     0383  00A0               	movwf	clcd_putch@addr
  4113     0384  300A               	movlw	10
  4114     0385  00F2               	movwf	___awmod@divisor
  4115     0386  3000               	movlw	0
  4116     0387  00F3               	movwf	___awmod@divisor+1
  4117     0388  0869               	movf	_min,w
  4118     0389  00D4               	movwf	??_run_program
  4119     038A  01D5               	clrf	??_run_program+1
  4120     038B  0854               	movf	??_run_program,w
  4121     038C  00F4               	movwf	___awmod@dividend
  4122     038D  0855               	movf	??_run_program+1,w
  4123     038E  00F5               	movwf	___awmod@dividend+1
  4124     038F  160A  118A  2671  120A  118A  	fcall	___awmod
  4125     0394  0872               	movf	?___awmod,w
  4126     0395  3E30               	addlw	48
  4127     0396  160A  118A  24C8  120A  118A  	fcall	_clcd_putch
  4128     039B                     l3616:
  4129                           
  4130                           ;WASHING_MACH_func.c: 357:     clcd_putch(':', (0xC0 + 8));
  4131     039B  30C8               	movlw	200
  4132     039C  1283               	bcf	3,5	;RP0=0, select bank0
  4133     039D  1303               	bcf	3,6	;RP1=0, select bank0
  4134     039E  00A0               	movwf	clcd_putch@addr
  4135     039F  303A               	movlw	58
  4136     03A0  160A  118A  24C8  120A  118A  	fcall	_clcd_putch
  4137     03A5                     l3618:
  4138                           
  4139                           ;WASHING_MACH_func.c: 358:     clcd_putch(sec / 10 + '0', (0xC0 + 9));
  4140     03A5  30C9               	movlw	201
  4141     03A6  1283               	bcf	3,5	;RP0=0, select bank0
  4142     03A7  1303               	bcf	3,6	;RP1=0, select bank0
  4143     03A8  00A0               	movwf	clcd_putch@addr
  4144     03A9  300A               	movlw	10
  4145     03AA  00F2               	movwf	___awdiv@divisor
  4146     03AB  3000               	movlw	0
  4147     03AC  00F3               	movwf	___awdiv@divisor+1
  4148     03AD  086A               	movf	_sec,w
  4149     03AE  00D4               	movwf	??_run_program
  4150     03AF  01D5               	clrf	??_run_program+1
  4151     03B0  0854               	movf	??_run_program,w
  4152     03B1  00F4               	movwf	___awdiv@dividend
  4153     03B2  0855               	movf	??_run_program+1,w
  4154     03B3  00F5               	movwf	___awdiv@dividend+1
  4155     03B4  160A  118A  2727  120A  118A  	fcall	___awdiv
  4156     03B9  0872               	movf	?___awdiv,w
  4157     03BA  3E30               	addlw	48
  4158     03BB  160A  118A  24C8  120A  118A  	fcall	_clcd_putch
  4159     03C0                     l3620:
  4160                           
  4161                           ;WASHING_MACH_func.c: 359:     clcd_putch(sec % 10 + '0', (0xC0 + 10));
  4162     03C0  30CA               	movlw	202
  4163     03C1  1283               	bcf	3,5	;RP0=0, select bank0
  4164     03C2  1303               	bcf	3,6	;RP1=0, select bank0
  4165     03C3  00A0               	movwf	clcd_putch@addr
  4166     03C4  300A               	movlw	10
  4167     03C5  00F2               	movwf	___awmod@divisor
  4168     03C6  3000               	movlw	0
  4169     03C7  00F3               	movwf	___awmod@divisor+1
  4170     03C8  086A               	movf	_sec,w
  4171     03C9  00D4               	movwf	??_run_program
  4172     03CA  01D5               	clrf	??_run_program+1
  4173     03CB  0854               	movf	??_run_program,w
  4174     03CC  00F4               	movwf	___awmod@dividend
  4175     03CD  0855               	movf	??_run_program+1,w
  4176     03CE  00F5               	movwf	___awmod@dividend+1
  4177     03CF  160A  118A  2671  120A  118A  	fcall	___awmod
  4178     03D4  0872               	movf	?___awmod,w
  4179     03D5  3E30               	addlw	48
  4180     03D6  160A  118A  24C8  120A  118A  	fcall	_clcd_putch
  4181     03DB                     l3622:
  4182                           
  4183                           ;WASHING_MACH_func.c: 362:     if (sec == 0 && min == 0) {
  4184     03DB  1283               	bcf	3,5	;RP0=0, select bank0
  4185     03DC  1303               	bcf	3,6	;RP1=0, select bank0
  4186     03DD  086A               	movf	_sec,w
  4187     03DE  1D03               	btfss	3,2
  4188     03DF  2BE1               	goto	u4581
  4189     03E0  2BE2               	goto	u4580
  4190     03E1                     u4581:
  4191     03E1  2C20               	goto	l307
  4192     03E2                     u4580:
  4193     03E2                     l3624:
  4194     03E2  0869               	movf	_min,w
  4195     03E3  1D03               	btfss	3,2
  4196     03E4  2BE6               	goto	u4591
  4197     03E5  2BE7               	goto	u4590
  4198     03E6                     u4591:
  4199     03E6  2C20               	goto	l307
  4200     03E7                     u4590:
  4201     03E7                     l3626:
  4202                           
  4203                           ;WASHING_MACH_func.c: 363:         clear_screen();
  4204     03E7  160A  118A  2491  120A  118A  	fcall	_clear_screen
  4205     03EC                     l3628:
  4206                           
  4207                           ;WASHING_MACH_func.c: 364:         RC2 = 0 ;
  4208     03EC  1283               	bcf	3,5	;RP0=0, select bank0
  4209     03ED  1303               	bcf	3,6	;RP1=0, select bank0
  4210     03EE  1107               	bcf	7,2	;volatile
  4211     03EF                     l3630:
  4212                           
  4213                           ;WASHING_MACH_func.c: 365:         RC1 = 1 ;
  4214     03EF  1487               	bsf	7,1	;volatile
  4215     03F0                     l3632:
  4216                           
  4217                           ;WASHING_MACH_func.c: 367:         clcd_print("Done !!", (0x80 + 0));
  4218     03F0  3029               	movlw	low (STR_42| (0+32768))
  4219     03F1  00F6               	movwf	clcd_print@str
  4220     03F2  3091               	movlw	high (STR_42| (0+32768))
  4221     03F3  00F7               	movwf	clcd_print@str+1
  4222     03F4  3080               	movlw	128
  4223     03F5  00F8               	movwf	clcd_print@addr
  4224     03F6  160A  118A  254A  120A  118A  	fcall	_clcd_print
  4225     03FB                     l3634:
  4226                           
  4227                           ;WASHING_MACH_func.c: 368:         clcd_print("Remove clothes", (0xC0 + 0));
  4228     03FB  3053               	movlw	low (STR_43| (0+32768))
  4229     03FC  00F6               	movwf	clcd_print@str
  4230     03FD  3090               	movlw	high (STR_43| (0+32768))
  4231     03FE  00F7               	movwf	clcd_print@str+1
  4232     03FF  30C0               	movlw	192
  4233     0400  00F8               	movwf	clcd_print@addr
  4234     0401  160A  118A  254A  120A  118A  	fcall	_clcd_print
  4235     0406                     l3636:
  4236                           
  4237                           ;WASHING_MACH_func.c: 369:         _delay((unsigned long)((2000)*(20000000/4000.0)));
  4238     0406  3033               	movlw	51
  4239     0407  1283               	bcf	3,5	;RP0=0, select bank0
  4240     0408  1303               	bcf	3,6	;RP1=0, select bank0
  4241     0409  00D6               	movwf	??_run_program+2
  4242     040A  30BB               	movlw	187
  4243     040B  00D5               	movwf	??_run_program+1
  4244     040C  30DF               	movlw	223
  4245     040D  00D4               	movwf	??_run_program
  4246     040E                     u4727:
  4247     040E  0BD4               	decfsz	??_run_program,f
  4248     040F  2C0E               	goto	u4727
  4249     0410  0BD5               	decfsz	??_run_program+1,f
  4250     0411  2C0E               	goto	u4727
  4251     0412  0BD6               	decfsz	??_run_program+2,f
  4252     0413  2C0E               	goto	u4727
  4253     0414                     l3638:
  4254                           
  4255                           ;WASHING_MACH_func.c: 371:         operational_mode = 0x01 ;
  4256     0414  3001               	movlw	1
  4257     0415  1283               	bcf	3,5	;RP0=0, select bank0
  4258     0416  1303               	bcf	3,6	;RP1=0, select bank0
  4259     0417  00EE               	movwf	_operational_mode
  4260     0418                     l3640:
  4261                           
  4262                           ;WASHING_MACH_func.c: 372:         reset_flag = 0x11 ;
  4263     0418  3011               	movlw	17
  4264     0419  00EF               	movwf	_reset_flag
  4265     041A                     l3642:
  4266                           
  4267                           ;WASHING_MACH_func.c: 373:         RC1 = 0 ;
  4268     041A  1087               	bcf	7,1	;volatile
  4269     041B                     l3644:
  4270                           
  4271                           ;WASHING_MACH_func.c: 374:         clear_screen();
  4272     041B  160A  118A  2491  120A  118A  	fcall	_clear_screen
  4273     0420                     l307:
  4274     0420  0008               	return
  4275     0421                     __end_of_run_program:
  4276                           
  4277                           	psect	text5
  4278     16C8                     __ptext5:	
  4279 ;; *************** function _door_status_check *****************
  4280 ;; Defined at:
  4281 ;;		line 380 in file "WASHING_MACH_func.c"
  4282 ;; Parameters:    Size  Location     Type
  4283 ;;		None
  4284 ;; Auto vars:     Size  Location     Type
  4285 ;;		None
  4286 ;; Return value:  Size  Location     Type
  4287 ;;                  1    wreg      void 
  4288 ;; Registers used:
  4289 ;;		wreg, fsr0l, fsr0h, status,2, status,0, btemp+1, pclath, cstack
  4290 ;; Tracked objects:
  4291 ;;		On entry : 0/0
  4292 ;;		On exit  : 0/0
  4293 ;;		Unchanged: 0/0
  4294 ;; Data sizes:     COMMON   BANK0   BANK1   BANK3   BANK2
  4295 ;;      Params:         0       0       0       0       0
  4296 ;;      Locals:         0       0       0       0       0
  4297 ;;      Temps:          0       0       0       0       0
  4298 ;;      Totals:         0       0       0       0       0
  4299 ;;Total ram usage:        0 bytes
  4300 ;; Hardware stack levels used: 1
  4301 ;; Hardware stack levels required when called: 3
  4302 ;; This function calls:
  4303 ;;		_clcd_print
  4304 ;;		_clear_screen
  4305 ;; This function is called by:
  4306 ;;		_run_program
  4307 ;; This function uses a non-reentrant model
  4308 ;;
  4309                           
  4310     16C8                     _door_status_check:	
  4311                           ;psect for function _door_status_check
  4312                           
  4313     16C8                     l3248:	
  4314                           ;incstack = 0
  4315                           ; Regs used in _door_status_check: [wreg-fsr0h+status,2+status,0+btemp+1+pclath+cstack]
  4316                           
  4317                           
  4318                           ;WASHING_MACH_func.c: 382:     if (RB0 == 0){
  4319     16C8  1283               	bcf	3,5	;RP0=0, select bank0
  4320     16C9  1303               	bcf	3,6	;RP1=0, select bank0
  4321     16CA  1806               	btfsc	6,0	;volatile
  4322     16CB  2ECD               	goto	u3951
  4323     16CC  2ECE               	goto	u3950
  4324     16CD                     u3951:
  4325     16CD  2F26               	goto	l314
  4326     16CE                     u3950:
  4327     16CE                     l3250:
  4328                           
  4329                           ;WASHING_MACH_func.c: 383:         RC2 = 0 ;
  4330     16CE  1107               	bcf	7,2	;volatile
  4331                           
  4332                           ;WASHING_MACH_func.c: 384:         TMR2ON = 0;
  4333     16CF  1112               	bcf	18,2	;volatile
  4334                           
  4335                           ;WASHING_MACH_func.c: 385:         RC1 = 1 ;
  4336     16D0  1487               	bsf	7,1	;volatile
  4337     16D1                     l3252:
  4338                           
  4339                           ;WASHING_MACH_func.c: 386:         clear_screen();
  4340     16D1  160A  118A  2491  160A  118A  	fcall	_clear_screen
  4341     16D6                     l3254:
  4342                           
  4343                           ;WASHING_MACH_func.c: 387:         clcd_print("The door's open",(0x80 + 0));
  4344     16D6  3033               	movlw	low (STR_44| (0+32768))
  4345     16D7  00F6               	movwf	clcd_print@str
  4346     16D8  3090               	movlw	high (STR_44| (0+32768))
  4347     16D9  00F7               	movwf	clcd_print@str+1
  4348     16DA  3080               	movlw	128
  4349     16DB  00F8               	movwf	clcd_print@addr
  4350     16DC  160A  118A  254A  160A  118A  	fcall	_clcd_print
  4351     16E1                     l3256:
  4352                           
  4353                           ;WASHING_MACH_func.c: 388:         clcd_print("Please close It",(0xC0 + 0));
  4354     16E1  3043               	movlw	low (STR_45| (0+32768))
  4355     16E2  00F6               	movwf	clcd_print@str
  4356     16E3  3090               	movlw	high (STR_45| (0+32768))
  4357     16E4  00F7               	movwf	clcd_print@str+1
  4358     16E5  30C0               	movlw	192
  4359     16E6  00F8               	movwf	clcd_print@addr
  4360     16E7  160A  118A  254A  160A  118A  	fcall	_clcd_print
  4361     16EC                     l311:	
  4362                           ;WASHING_MACH_func.c: 391:         {;WASHING_MACH_func.c: 393:         }
  4363                           
  4364                           
  4365                           ;WASHING_MACH_func.c: 390:         while(RB0 == 0)
  4366     16EC  1283               	bcf	3,5	;RP0=0, select bank0
  4367     16ED  1303               	bcf	3,6	;RP1=0, select bank0
  4368     16EE  1C06               	btfss	6,0	;volatile
  4369     16EF  2EF1               	goto	u3961
  4370     16F0  2EF2               	goto	u3960
  4371     16F1                     u3961:
  4372     16F1  2EEC               	goto	l311
  4373     16F2                     u3960:
  4374     16F2                     l313:
  4375                           
  4376                           ;WASHING_MACH_func.c: 394:         RC2 = 1 ;
  4377     16F2  1507               	bsf	7,2	;volatile
  4378                           
  4379                           ;WASHING_MACH_func.c: 395:         TMR2ON = 1;
  4380     16F3  1512               	bsf	18,2	;volatile
  4381                           
  4382                           ;WASHING_MACH_func.c: 396:         RC1 = 0 ;
  4383     16F4  1087               	bcf	7,1	;volatile
  4384     16F5                     l3258:
  4385                           
  4386                           ;WASHING_MACH_func.c: 397:         clear_screen();
  4387     16F5  160A  118A  2491  160A  118A  	fcall	_clear_screen
  4388     16FA                     l3260:
  4389                           
  4390                           ;WASHING_MACH_func.c: 399:         clcd_print("Function:", (0x80 + 0));
  4391     16FA  30DA               	movlw	low (STR_30| (0+32768))
  4392     16FB  00F6               	movwf	clcd_print@str
  4393     16FC  3090               	movlw	high (STR_30| (0+32768))
  4394     16FD  00F7               	movwf	clcd_print@str+1
  4395     16FE  3080               	movlw	128
  4396     16FF  00F8               	movwf	clcd_print@addr
  4397     1700  160A  118A  254A  160A  118A  	fcall	_clcd_print
  4398     1705                     l3262:
  4399                           
  4400                           ;WASHING_MACH_func.c: 400:         clcd_print("Time:", (0xC0 + 0));
  4401     1705  305F               	movlw	low (STR_31| (0+32768))
  4402     1706  00F6               	movwf	clcd_print@str
  4403     1707  3091               	movlw	high (STR_31| (0+32768))
  4404     1708  00F7               	movwf	clcd_print@str+1
  4405     1709  30C0               	movlw	192
  4406     170A  00F8               	movwf	clcd_print@addr
  4407     170B  160A  118A  254A  160A  118A  	fcall	_clcd_print
  4408     1710                     l3264:
  4409                           
  4410                           ;WASHING_MACH_func.c: 401:         clcd_print("RB4:START", (0x90 + 0));
  4411     1710  30EE               	movlw	low (STR_32| (0+32768))
  4412     1711  00F6               	movwf	clcd_print@str
  4413     1712  3090               	movlw	high (STR_32| (0+32768))
  4414     1713  00F7               	movwf	clcd_print@str+1
  4415     1714  3090               	movlw	144
  4416     1715  00F8               	movwf	clcd_print@addr
  4417     1716  160A  118A  254A  160A  118A  	fcall	_clcd_print
  4418     171B                     l3266:
  4419                           
  4420                           ;WASHING_MACH_func.c: 402:         clcd_print("RB5:PAUSE", (0xD0 + 0));
  4421     171B  30E4               	movlw	low (STR_33| (0+32768))
  4422     171C  00F6               	movwf	clcd_print@str
  4423     171D  3090               	movlw	high (STR_33| (0+32768))
  4424     171E  00F7               	movwf	clcd_print@str+1
  4425     171F  30D0               	movlw	208
  4426     1720  00F8               	movwf	clcd_print@addr
  4427     1721  160A  118A  254A  160A  118A  	fcall	_clcd_print
  4428     1726                     l314:
  4429     1726  0008               	return
  4430     1727                     __end_of_door_status_check:
  4431                           
  4432                           	psect	text6
  4433     1491                     __ptext6:	
  4434 ;; *************** function _clear_screen *****************
  4435 ;; Defined at:
  4436 ;;		line 406 in file "WASHING_MACH_func.c"
  4437 ;; Parameters:    Size  Location     Type
  4438 ;;		None
  4439 ;; Auto vars:     Size  Location     Type
  4440 ;;		None
  4441 ;; Return value:  Size  Location     Type
  4442 ;;                  1    wreg      void 
  4443 ;; Registers used:
  4444 ;;		wreg, status,2, status,0, pclath, cstack
  4445 ;; Tracked objects:
  4446 ;;		On entry : 0/0
  4447 ;;		On exit  : 0/0
  4448 ;;		Unchanged: 0/0
  4449 ;; Data sizes:     COMMON   BANK0   BANK1   BANK3   BANK2
  4450 ;;      Params:         0       0       0       0       0
  4451 ;;      Locals:         0       0       0       0       0
  4452 ;;      Temps:          2       0       0       0       0
  4453 ;;      Totals:         2       0       0       0       0
  4454 ;;Total ram usage:        2 bytes
  4455 ;; Hardware stack levels used: 1
  4456 ;; Hardware stack levels required when called: 2
  4457 ;; This function calls:
  4458 ;;		_clcd_write
  4459 ;; This function is called by:
  4460 ;;		_main
  4461 ;;		_washing_program_displaying
  4462 ;;		_water_lvl_screen_display
  4463 ;;		_run_program
  4464 ;;		_door_status_check
  4465 ;; This function uses a non-reentrant model
  4466 ;;
  4467                           
  4468     1491                     _clear_screen:	
  4469                           ;psect for function _clear_screen
  4470                           
  4471     1491                     l3200:	
  4472                           ;incstack = 0
  4473                           ; Regs used in _clear_screen: [wreg+status,2+status,0+pclath+cstack]
  4474                           
  4475                           
  4476                           ;WASHING_MACH_func.c: 408:     clcd_write(0x01, 0);
  4477     1491  01F2               	clrf	clcd_write@mode
  4478     1492  3001               	movlw	1
  4479     1493  160A  118A  24DD  160A  118A  	fcall	_clcd_write
  4480     1498                     l3202:
  4481                           
  4482                           ;WASHING_MACH_func.c: 409:     _delay((unsigned long)((500)*(20000000/4000000.0)));
  4483     1498  3004               	movlw	4
  4484     1499  00F7               	movwf	??_clear_screen+1
  4485     149A  303D               	movlw	61
  4486     149B  00F6               	movwf	??_clear_screen
  4487     149C                     u4737:
  4488     149C  0BF6               	decfsz	??_clear_screen,f
  4489     149D  2C9C               	goto	u4737
  4490     149E  0BF7               	decfsz	??_clear_screen+1,f
  4491     149F  2C9C               	goto	u4737
  4492     14A0  2CA1               	nop2
  4493     14A1                     l317:
  4494     14A1  0008               	return
  4495     14A2                     __end_of_clear_screen:
  4496                           
  4497                           	psect	text7
  4498     08C6                     __ptext7:	
  4499 ;; *************** function ___xxtofl *****************
  4500 ;; Defined at:
  4501 ;;		line 10 in file "D:\Aarav study\pic\sources\c99\common\xxtofl.c"
  4502 ;; Parameters:    Size  Location     Type
  4503 ;;  sign            1    wreg     unsigned char 
  4504 ;;  val             4    2[COMMON] long 
  4505 ;; Auto vars:     Size  Location     Type
  4506 ;;  sign            1    0[BANK0 ] unsigned char 
  4507 ;;  arg             4    2[BANK0 ] unsigned long 
  4508 ;;  exp             1    1[BANK0 ] unsigned char 
  4509 ;; Return value:  Size  Location     Type
  4510 ;;                  4    2[COMMON] unsigned char 
  4511 ;; Registers used:
  4512 ;;		wreg, status,2, status,0
  4513 ;; Tracked objects:
  4514 ;;		On entry : 0/0
  4515 ;;		On exit  : 0/0
  4516 ;;		Unchanged: 0/0
  4517 ;; Data sizes:     COMMON   BANK0   BANK1   BANK3   BANK2
  4518 ;;      Params:         4       0       0       0       0
  4519 ;;      Locals:         0       6       0       0       0
  4520 ;;      Temps:          4       0       0       0       0
  4521 ;;      Totals:         8       6       0       0       0
  4522 ;;Total ram usage:       14 bytes
  4523 ;; Hardware stack levels used: 1
  4524 ;; Hardware stack levels required when called: 1
  4525 ;; This function calls:
  4526 ;;		Nothing
  4527 ;; This function is called by:
  4528 ;;		_run_program
  4529 ;; This function uses a non-reentrant model
  4530 ;;
  4531                           
  4532     08C6                     ___xxtofl:	
  4533                           ;psect for function ___xxtofl
  4534                           
  4535                           
  4536                           ;incstack = 0
  4537                           ; Regs used in ___xxtofl: [wreg+status,2+status,0]
  4538                           ;___xxtofl@sign stored from wreg
  4539     08C6  1283               	bcf	3,5	;RP0=0, select bank0
  4540     08C7  1303               	bcf	3,6	;RP1=0, select bank0
  4541     08C8  00A0               	movwf	___xxtofl@sign
  4542     08C9                     l2634:
  4543     08C9  0820               	movf	___xxtofl@sign,w
  4544     08CA  1903               	btfsc	3,2
  4545     08CB  28CD               	goto	u3241
  4546     08CC  28CE               	goto	u3240
  4547     08CD                     u3241:
  4548     08CD  28E2               	goto	l2640
  4549     08CE                     u3240:
  4550     08CE                     l2636:
  4551     08CE  1FF5               	btfss	___xxtofl@val+3,7
  4552     08CF  28D1               	goto	u3251
  4553     08D0  28D2               	goto	u3250
  4554     08D1                     u3251:
  4555     08D1  28E2               	goto	l2640
  4556     08D2                     u3250:
  4557     08D2                     l2638:
  4558     08D2  0972               	comf	___xxtofl@val,w
  4559     08D3  00A2               	movwf	___xxtofl@arg
  4560     08D4  0973               	comf	___xxtofl@val+1,w
  4561     08D5  00A3               	movwf	___xxtofl@arg+1
  4562     08D6  0974               	comf	___xxtofl@val+2,w
  4563     08D7  00A4               	movwf	___xxtofl@arg+2
  4564     08D8  0975               	comf	___xxtofl@val+3,w
  4565     08D9  00A5               	movwf	___xxtofl@arg+3
  4566     08DA  0AA2               	incf	___xxtofl@arg,f
  4567     08DB  1903               	skipnz
  4568     08DC  0AA3               	incf	___xxtofl@arg+1,f
  4569     08DD  1903               	skipnz
  4570     08DE  0AA4               	incf	___xxtofl@arg+2,f
  4571     08DF  1903               	skipnz
  4572     08E0  0AA5               	incf	___xxtofl@arg+3,f
  4573     08E1  28EA               	goto	l895
  4574     08E2                     l2640:
  4575     08E2  0875               	movf	___xxtofl@val+3,w
  4576     08E3  00A5               	movwf	___xxtofl@arg+3
  4577     08E4  0874               	movf	___xxtofl@val+2,w
  4578     08E5  00A4               	movwf	___xxtofl@arg+2
  4579     08E6  0873               	movf	___xxtofl@val+1,w
  4580     08E7  00A3               	movwf	___xxtofl@arg+1
  4581     08E8  0872               	movf	___xxtofl@val,w
  4582     08E9  00A2               	movwf	___xxtofl@arg
  4583     08EA                     l895:
  4584     08EA  0875               	movf	___xxtofl@val+3,w
  4585     08EB  0474               	iorwf	___xxtofl@val+2,w
  4586     08EC  0473               	iorwf	___xxtofl@val+1,w
  4587     08ED  0472               	iorwf	___xxtofl@val,w
  4588     08EE  1D03               	skipz
  4589     08EF  28F1               	goto	u3261
  4590     08F0  28F2               	goto	u3260
  4591     08F1                     u3261:
  4592     08F1  28FB               	goto	l896
  4593     08F2                     u3260:
  4594     08F2                     l2642:
  4595     08F2  3000               	movlw	0
  4596     08F3  00F5               	movwf	?___xxtofl+3
  4597     08F4  3000               	movlw	0
  4598     08F5  00F4               	movwf	?___xxtofl+2
  4599     08F6  3000               	movlw	0
  4600     08F7  00F3               	movwf	?___xxtofl+1
  4601     08F8  3000               	movlw	0
  4602     08F9  00F2               	movwf	?___xxtofl
  4603     08FA  297B               	goto	l897
  4604     08FB                     l896:
  4605     08FB  3096               	movlw	150
  4606     08FC  00A1               	movwf	___xxtofl@exp
  4607     08FD  2909               	goto	l2648
  4608     08FE                     l2646:
  4609     08FE  3001               	movlw	1
  4610     08FF  07A1               	addwf	___xxtofl@exp,f
  4611     0900  3001               	movlw	1
  4612     0901                     u3275:
  4613     0901  1003               	clrc
  4614     0902  0CA5               	rrf	___xxtofl@arg+3,f
  4615     0903  0CA4               	rrf	___xxtofl@arg+2,f
  4616     0904  0CA3               	rrf	___xxtofl@arg+1,f
  4617     0905  0CA2               	rrf	___xxtofl@arg,f
  4618     0906  3EFF               	addlw	-1
  4619     0907  1D03               	skipz
  4620     0908  2901               	goto	u3275
  4621     0909                     l2648:
  4622     0909  30FE               	movlw	254
  4623     090A  0525               	andwf	___xxtofl@arg+3,w
  4624     090B  1D03               	btfss	3,2
  4625     090C  290E               	goto	u3281
  4626     090D  290F               	goto	u3280
  4627     090E                     u3281:
  4628     090E  28FE               	goto	l2646
  4629     090F                     u3280:
  4630     090F  2929               	goto	l901
  4631     0910                     l2650:
  4632     0910  3001               	movlw	1
  4633     0911  07A1               	addwf	___xxtofl@exp,f
  4634     0912                     l2652:
  4635     0912  3001               	movlw	1
  4636     0913  07A2               	addwf	___xxtofl@arg,f
  4637     0914  3000               	movlw	0
  4638     0915  1803               	skipnc
  4639     0916  3001               	movlw	1
  4640     0917  07A3               	addwf	___xxtofl@arg+1,f
  4641     0918  3000               	movlw	0
  4642     0919  1803               	skipnc
  4643     091A  3001               	movlw	1
  4644     091B  07A4               	addwf	___xxtofl@arg+2,f
  4645     091C  3000               	movlw	0
  4646     091D  1803               	skipnc
  4647     091E  3001               	movlw	1
  4648     091F  07A5               	addwf	___xxtofl@arg+3,f
  4649     0920                     l2654:
  4650     0920  3001               	movlw	1
  4651     0921                     u3295:
  4652     0921  1003               	clrc
  4653     0922  0CA5               	rrf	___xxtofl@arg+3,f
  4654     0923  0CA4               	rrf	___xxtofl@arg+2,f
  4655     0924  0CA3               	rrf	___xxtofl@arg+1,f
  4656     0925  0CA2               	rrf	___xxtofl@arg,f
  4657     0926  3EFF               	addlw	-1
  4658     0927  1D03               	skipz
  4659     0928  2921               	goto	u3295
  4660     0929                     l901:
  4661     0929  30FF               	movlw	255
  4662     092A  0525               	andwf	___xxtofl@arg+3,w
  4663     092B  1D03               	btfss	3,2
  4664     092C  292E               	goto	u3301
  4665     092D  292F               	goto	u3300
  4666     092E                     u3301:
  4667     092E  2910               	goto	l2650
  4668     092F                     u3300:
  4669     092F  293B               	goto	l2658
  4670     0930                     l2656:
  4671     0930  3001               	movlw	1
  4672     0931  02A1               	subwf	___xxtofl@exp,f
  4673     0932  3001               	movlw	1
  4674     0933  00F6               	movwf	??___xxtofl
  4675     0934                     u3315:
  4676     0934  1003               	clrc
  4677     0935  0DA2               	rlf	___xxtofl@arg,f
  4678     0936  0DA3               	rlf	___xxtofl@arg+1,f
  4679     0937  0DA4               	rlf	___xxtofl@arg+2,f
  4680     0938  0DA5               	rlf	___xxtofl@arg+3,f
  4681     0939  0BF6               	decfsz	??___xxtofl,f
  4682     093A  2934               	goto	u3315
  4683     093B                     l2658:
  4684     093B  1BA4               	btfsc	___xxtofl@arg+2,7
  4685     093C  293E               	goto	u3321
  4686     093D  293F               	goto	u3320
  4687     093E                     u3321:
  4688     093E  2945               	goto	l908
  4689     093F                     u3320:
  4690     093F                     l2660:
  4691     093F  3002               	movlw	2
  4692     0940  0221               	subwf	___xxtofl@exp,w
  4693     0941  1803               	skipnc
  4694     0942  2944               	goto	u3331
  4695     0943  2945               	goto	u3330
  4696     0944                     u3331:
  4697     0944  2930               	goto	l2656
  4698     0945                     u3330:
  4699     0945                     l908:
  4700     0945  1821               	btfsc	___xxtofl@exp,0
  4701     0946  2948               	goto	u3341
  4702     0947  2949               	goto	u3340
  4703     0948                     u3341:
  4704     0948  2951               	goto	l909
  4705     0949                     u3340:
  4706     0949                     l2662:
  4707     0949  30FF               	movlw	255
  4708     094A  05A2               	andwf	___xxtofl@arg,f
  4709     094B  30FF               	movlw	255
  4710     094C  05A3               	andwf	___xxtofl@arg+1,f
  4711     094D  307F               	movlw	127
  4712     094E  05A4               	andwf	___xxtofl@arg+2,f
  4713     094F  30FF               	movlw	255
  4714     0950  05A5               	andwf	___xxtofl@arg+3,f
  4715     0951                     l909:
  4716     0951  1003               	clrc
  4717     0952  0CA1               	rrf	___xxtofl@exp,f
  4718     0953                     l2664:
  4719     0953  0821               	movf	___xxtofl@exp,w
  4720     0954  00F6               	movwf	??___xxtofl
  4721     0955  01F7               	clrf	??___xxtofl+1
  4722     0956  01F8               	clrf	??___xxtofl+2
  4723     0957  01F9               	clrf	??___xxtofl+3
  4724     0958  3018               	movlw	24
  4725     0959                     u3355:
  4726     0959  1003               	clrc
  4727     095A  0DF6               	rlf	??___xxtofl,f
  4728     095B  0DF7               	rlf	??___xxtofl+1,f
  4729     095C  0DF8               	rlf	??___xxtofl+2,f
  4730     095D  0DF9               	rlf	??___xxtofl+3,f
  4731     095E                     u3350:
  4732     095E  3EFF               	addlw	-1
  4733     095F  1D03               	skipz
  4734     0960  2959               	goto	u3355
  4735     0961  0876               	movf	??___xxtofl,w
  4736     0962  04A2               	iorwf	___xxtofl@arg,f
  4737     0963  0877               	movf	??___xxtofl+1,w
  4738     0964  04A3               	iorwf	___xxtofl@arg+1,f
  4739     0965  0878               	movf	??___xxtofl+2,w
  4740     0966  04A4               	iorwf	___xxtofl@arg+2,f
  4741     0967  0879               	movf	??___xxtofl+3,w
  4742     0968  04A5               	iorwf	___xxtofl@arg+3,f
  4743     0969                     l2666:
  4744     0969  0820               	movf	___xxtofl@sign,w
  4745     096A  1903               	btfsc	3,2
  4746     096B  296D               	goto	u3361
  4747     096C  296E               	goto	u3360
  4748     096D                     u3361:
  4749     096D  2973               	goto	l2672
  4750     096E                     u3360:
  4751     096E                     l2668:
  4752     096E  1FF5               	btfss	___xxtofl@val+3,7
  4753     096F  2971               	goto	u3371
  4754     0970  2972               	goto	u3370
  4755     0971                     u3371:
  4756     0971  2973               	goto	l2672
  4757     0972                     u3370:
  4758     0972                     l2670:
  4759     0972  17A5               	bsf	___xxtofl@arg+3,7
  4760     0973                     l2672:
  4761     0973  0825               	movf	___xxtofl@arg+3,w
  4762     0974  00F5               	movwf	?___xxtofl+3
  4763     0975  0824               	movf	___xxtofl@arg+2,w
  4764     0976  00F4               	movwf	?___xxtofl+2
  4765     0977  0823               	movf	___xxtofl@arg+1,w
  4766     0978  00F3               	movwf	?___xxtofl+1
  4767     0979  0822               	movf	___xxtofl@arg,w
  4768     097A  00F2               	movwf	?___xxtofl
  4769     097B                     l897:
  4770     097B  0008               	return
  4771     097C                     __end_of___xxtofl:
  4772                           
  4773                           	psect	text8
  4774     178A                     __ptext8:	
  4775 ;; *************** function ___fltol *****************
  4776 ;; Defined at:
  4777 ;;		line 43 in file "D:\Aarav study\pic\sources\c99\common\fltol.c"
  4778 ;; Parameters:    Size  Location     Type
  4779 ;;  f1              4   32[BANK0 ] unsigned char 
  4780 ;; Auto vars:     Size  Location     Type
  4781 ;;  exp1            1   41[BANK0 ] unsigned char 
  4782 ;;  sign1           1   40[BANK0 ] unsigned char 
  4783 ;; Return value:  Size  Location     Type
  4784 ;;                  4   32[BANK0 ] long 
  4785 ;; Registers used:
  4786 ;;		wreg, status,2, status,0
  4787 ;; Tracked objects:
  4788 ;;		On entry : 0/0
  4789 ;;		On exit  : 0/0
  4790 ;;		Unchanged: 0/0
  4791 ;; Data sizes:     COMMON   BANK0   BANK1   BANK3   BANK2
  4792 ;;      Params:         0       4       0       0       0
  4793 ;;      Locals:         0       2       0       0       0
  4794 ;;      Temps:          0       4       0       0       0
  4795 ;;      Totals:         0      10       0       0       0
  4796 ;;Total ram usage:       10 bytes
  4797 ;; Hardware stack levels used: 1
  4798 ;; Hardware stack levels required when called: 1
  4799 ;; This function calls:
  4800 ;;		Nothing
  4801 ;; This function is called by:
  4802 ;;		_run_program
  4803 ;; This function uses a non-reentrant model
  4804 ;;
  4805                           
  4806     178A                     ___fltol:	
  4807                           ;psect for function ___fltol
  4808                           
  4809     178A                     l2450:	
  4810                           ;incstack = 0
  4811                           ; Regs used in ___fltol: [wreg+status,2+status,0]
  4812                           
  4813     178A  1003               	clrc
  4814     178B  1283               	bcf	3,5	;RP0=0, select bank0
  4815     178C  1303               	bcf	3,6	;RP1=0, select bank0
  4816     178D  0D42               	rlf	___fltol@f1+2,w
  4817     178E  0D43               	rlf	___fltol@f1+3,w
  4818     178F  00C9               	movwf	___fltol@exp1
  4819     1790  0849               	movf	___fltol@exp1,w
  4820     1791  1D03               	btfss	3,2
  4821     1792  2F94               	goto	u2771
  4822     1793  2F95               	goto	u2770
  4823     1794                     u2771:
  4824     1794  2F9E               	goto	l2456
  4825     1795                     u2770:
  4826     1795                     l2452:
  4827     1795  3000               	movlw	0
  4828     1796  00C3               	movwf	?___fltol+3
  4829     1797  3000               	movlw	0
  4830     1798  00C2               	movwf	?___fltol+2
  4831     1799  3000               	movlw	0
  4832     179A  00C1               	movwf	?___fltol+1
  4833     179B  3000               	movlw	0
  4834     179C  00C0               	movwf	?___fltol
  4835     179D  2FFF               	goto	l648
  4836     179E                     l2456:
  4837     179E  0840               	movf	___fltol@f1,w
  4838     179F  00C4               	movwf	??___fltol
  4839     17A0  0841               	movf	___fltol@f1+1,w
  4840     17A1  00C5               	movwf	??___fltol+1
  4841     17A2  0842               	movf	___fltol@f1+2,w
  4842     17A3  00C6               	movwf	??___fltol+2
  4843     17A4  0843               	movf	___fltol@f1+3,w
  4844     17A5  00C7               	movwf	??___fltol+3
  4845     17A6  301F               	movlw	31
  4846     17A7                     u2785:
  4847     17A7  1003               	clrc
  4848     17A8  0CC7               	rrf	??___fltol+3,f
  4849     17A9  0CC6               	rrf	??___fltol+2,f
  4850     17AA  0CC5               	rrf	??___fltol+1,f
  4851     17AB  0CC4               	rrf	??___fltol,f
  4852     17AC                     u2780:
  4853     17AC  3EFF               	addlw	-1
  4854     17AD  1D03               	skipz
  4855     17AE  2FA7               	goto	u2785
  4856     17AF  0844               	movf	??___fltol,w
  4857     17B0  00C8               	movwf	___fltol@sign1
  4858     17B1                     l2458:
  4859     17B1  17C2               	bsf	___fltol@f1+2,7
  4860     17B2                     l2460:
  4861     17B2  30FF               	movlw	255
  4862     17B3  05C0               	andwf	___fltol@f1,f
  4863     17B4  30FF               	movlw	255
  4864     17B5  05C1               	andwf	___fltol@f1+1,f
  4865     17B6  30FF               	movlw	255
  4866     17B7  05C2               	andwf	___fltol@f1+2,f
  4867     17B8  3000               	movlw	0
  4868     17B9  05C3               	andwf	___fltol@f1+3,f
  4869     17BA                     l2462:
  4870     17BA  3096               	movlw	150
  4871     17BB  02C9               	subwf	___fltol@exp1,f
  4872     17BC                     l2464:
  4873     17BC  1FC9               	btfss	___fltol@exp1,7
  4874     17BD  2FBF               	goto	u2791
  4875     17BE  2FC0               	goto	u2790
  4876     17BF                     u2791:
  4877     17BF  2FD8               	goto	l2474
  4878     17C0                     u2790:
  4879     17C0                     l2466:
  4880     17C0  0849               	movf	___fltol@exp1,w
  4881     17C1  3A80               	xorlw	128
  4882     17C2  3E97               	addlw	151
  4883     17C3  1803               	skipnc
  4884     17C4  2FC6               	goto	u2801
  4885     17C5  2FC7               	goto	u2800
  4886     17C6                     u2801:
  4887     17C6  2FC8               	goto	l2472
  4888     17C7                     u2800:
  4889     17C7  2F95               	goto	l2452
  4890     17C8                     l2472:
  4891     17C8  3001               	movlw	1
  4892     17C9                     u2815:
  4893     17C9  1003               	clrc
  4894     17CA  0CC3               	rrf	___fltol@f1+3,f
  4895     17CB  0CC2               	rrf	___fltol@f1+2,f
  4896     17CC  0CC1               	rrf	___fltol@f1+1,f
  4897     17CD  0CC0               	rrf	___fltol@f1,f
  4898     17CE  3EFF               	addlw	-1
  4899     17CF  1D03               	skipz
  4900     17D0  2FC9               	goto	u2815
  4901     17D1  3001               	movlw	1
  4902     17D2  07C9               	addwf	___fltol@exp1,f
  4903     17D3  1D03               	btfss	3,2
  4904     17D4  2FD6               	goto	u2821
  4905     17D5  2FD7               	goto	u2820
  4906     17D6                     u2821:
  4907     17D6  2FC8               	goto	l2472
  4908     17D7                     u2820:
  4909     17D7  2FEF               	goto	l2482
  4910     17D8                     l2474:
  4911     17D8  3020               	movlw	32
  4912     17D9  0249               	subwf	___fltol@exp1,w
  4913     17DA  1C03               	skipc
  4914     17DB  2FDD               	goto	u2831
  4915     17DC  2FDE               	goto	u2830
  4916     17DD                     u2831:
  4917     17DD  2FEA               	goto	l655
  4918     17DE                     u2830:
  4919     17DE  2F95               	goto	l2452
  4920     17DF                     l2480:
  4921     17DF  3001               	movlw	1
  4922     17E0  00C4               	movwf	??___fltol
  4923     17E1                     u2845:
  4924     17E1  1003               	clrc
  4925     17E2  0DC0               	rlf	___fltol@f1,f
  4926     17E3  0DC1               	rlf	___fltol@f1+1,f
  4927     17E4  0DC2               	rlf	___fltol@f1+2,f
  4928     17E5  0DC3               	rlf	___fltol@f1+3,f
  4929     17E6  0BC4               	decfsz	??___fltol,f
  4930     17E7  2FE1               	goto	u2845
  4931     17E8  3001               	movlw	1
  4932     17E9  02C9               	subwf	___fltol@exp1,f
  4933     17EA                     l655:
  4934     17EA  0849               	movf	___fltol@exp1,w
  4935     17EB  1D03               	btfss	3,2
  4936     17EC  2FEE               	goto	u2851
  4937     17ED  2FEF               	goto	u2850
  4938     17EE                     u2851:
  4939     17EE  2FDF               	goto	l2480
  4940     17EF                     u2850:
  4941     17EF                     l2482:
  4942     17EF  0848               	movf	___fltol@sign1,w
  4943     17F0  1903               	btfsc	3,2
  4944     17F1  2FF3               	goto	u2861
  4945     17F2  2FF4               	goto	u2860
  4946     17F3                     u2861:
  4947     17F3  2FFF               	goto	l658
  4948     17F4                     u2860:
  4949     17F4                     l2484:
  4950     17F4  09C0               	comf	___fltol@f1,f
  4951     17F5  09C1               	comf	___fltol@f1+1,f
  4952     17F6  09C2               	comf	___fltol@f1+2,f
  4953     17F7  09C3               	comf	___fltol@f1+3,f
  4954     17F8  0AC0               	incf	___fltol@f1,f
  4955     17F9  1903               	skipnz
  4956     17FA  0AC1               	incf	___fltol@f1+1,f
  4957     17FB  1903               	skipnz
  4958     17FC  0AC2               	incf	___fltol@f1+2,f
  4959     17FD  1903               	skipnz
  4960     17FE  0AC3               	incf	___fltol@f1+3,f
  4961     17FF                     l658:
  4962     17FF                     l648:
  4963     17FF  0008               	return
  4964     1800                     __end_of___fltol:
  4965                           
  4966                           	psect	text9
  4967     14FD                     __ptext9:	
  4968 ;; *************** function ___flsub *****************
  4969 ;; Defined at:
  4970 ;;		line 242 in file "D:\Aarav study\pic\sources\c99\common\sprcadd.c"
  4971 ;; Parameters:    Size  Location     Type
  4972 ;;  a               4   32[BANK0 ] long 
  4973 ;;  b               4   36[BANK0 ] long 
  4974 ;; Auto vars:     Size  Location     Type
  4975 ;;		None
  4976 ;; Return value:  Size  Location     Type
  4977 ;;                  4   32[BANK0 ] long 
  4978 ;; Registers used:
  4979 ;;		wreg, status,2, status,0, btemp+1, pclath, cstack
  4980 ;; Tracked objects:
  4981 ;;		On entry : 0/0
  4982 ;;		On exit  : 0/0
  4983 ;;		Unchanged: 0/0
  4984 ;; Data sizes:     COMMON   BANK0   BANK1   BANK3   BANK2
  4985 ;;      Params:         0       8       0       0       0
  4986 ;;      Locals:         0       0       0       0       0
  4987 ;;      Temps:          0       0       0       0       0
  4988 ;;      Totals:         0       8       0       0       0
  4989 ;;Total ram usage:        8 bytes
  4990 ;; Hardware stack levels used: 1
  4991 ;; Hardware stack levels required when called: 2
  4992 ;; This function calls:
  4993 ;;		___fladd
  4994 ;; This function is called by:
  4995 ;;		_run_program
  4996 ;; This function uses a non-reentrant model
  4997 ;;
  4998                           
  4999     14FD                     ___flsub:	
  5000                           ;psect for function ___flsub
  5001                           
  5002     14FD                     l2486:	
  5003                           ;incstack = 0
  5004                           ; Regs used in ___flsub: [wreg+status,2+status,0+btemp+1+pclath+cstack]
  5005                           
  5006     14FD  3080               	movlw	128
  5007     14FE  1283               	bcf	3,5	;RP0=0, select bank0
  5008     14FF  1303               	bcf	3,6	;RP1=0, select bank0
  5009     1500  06C3               	xorwf	___flsub@a+3,f
  5010     1501                     l2488:
  5011     1501  0847               	movf	___flsub@b+3,w
  5012     1502  00F5               	movwf	___fladd@b+3
  5013     1503  0846               	movf	___flsub@b+2,w
  5014     1504  00F4               	movwf	___fladd@b+2
  5015     1505  0845               	movf	___flsub@b+1,w
  5016     1506  00F3               	movwf	___fladd@b+1
  5017     1507  0844               	movf	___flsub@b,w
  5018     1508  00F2               	movwf	___fladd@b
  5019     1509  0843               	movf	___flsub@a+3,w
  5020     150A  00F9               	movwf	___fladd@a+3
  5021     150B  0842               	movf	___flsub@a+2,w
  5022     150C  00F8               	movwf	___fladd@a+2
  5023     150D  0841               	movf	___flsub@a+1,w
  5024     150E  00F7               	movwf	___fladd@a+1
  5025     150F  0840               	movf	___flsub@a,w
  5026     1510  00F6               	movwf	___fladd@a
  5027     1511  120A  158A  25B0  160A  118A  	fcall	___fladd
  5028     1516  0875               	movf	?___fladd+3,w
  5029     1517  1283               	bcf	3,5	;RP0=0, select bank0
  5030     1518  1303               	bcf	3,6	;RP1=0, select bank0
  5031     1519  00C3               	movwf	?___flsub+3
  5032     151A  0874               	movf	?___fladd+2,w
  5033     151B  00C2               	movwf	?___flsub+2
  5034     151C  0873               	movf	?___fladd+1,w
  5035     151D  00C1               	movwf	?___flsub+1
  5036     151E  0872               	movf	?___fladd,w
  5037     151F  00C0               	movwf	?___flsub
  5038     1520                     l801:
  5039     1520  0008               	return
  5040     1521                     __end_of___flsub:
  5041                           
  5042                           	psect	text10
  5043     0DB0                     __ptext10:	
  5044 ;; *************** function ___fladd *****************
  5045 ;; Defined at:
  5046 ;;		line 10 in file "D:\Aarav study\pic\sources\c99\common\sprcadd.c"
  5047 ;; Parameters:    Size  Location     Type
  5048 ;;  b               4    2[COMMON] long 
  5049 ;;  a               4    6[COMMON] long 
  5050 ;; Auto vars:     Size  Location     Type
  5051 ;;  grs             1   11[BANK0 ] unsigned char 
  5052 ;;  bexp            1   10[BANK0 ] unsigned char 
  5053 ;;  aexp            1    9[BANK0 ] unsigned char 
  5054 ;;  signs           1    8[BANK0 ] unsigned char 
  5055 ;; Return value:  Size  Location     Type
  5056 ;;                  4    2[COMMON] unsigned char 
  5057 ;; Registers used:
  5058 ;;		wreg, status,2, status,0, btemp+1
  5059 ;; Tracked objects:
  5060 ;;		On entry : 0/0
  5061 ;;		On exit  : 0/0
  5062 ;;		Unchanged: 0/0
  5063 ;; Data sizes:     COMMON   BANK0   BANK1   BANK3   BANK2
  5064 ;;      Params:         8       0       0       0       0
  5065 ;;      Locals:         0       4       0       0       0
  5066 ;;      Temps:          0       8       0       0       0
  5067 ;;      Totals:         8      12       0       0       0
  5068 ;;Total ram usage:       20 bytes
  5069 ;; Hardware stack levels used: 1
  5070 ;; Hardware stack levels required when called: 1
  5071 ;; This function calls:
  5072 ;;		Nothing
  5073 ;; This function is called by:
  5074 ;;		___flsub
  5075 ;; This function uses a non-reentrant model
  5076 ;;
  5077                           
  5078     0DB0                     ___fladd:	
  5079                           ;psect for function ___fladd
  5080                           
  5081     0DB0                     l2088:	
  5082                           ;incstack = 0
  5083                           ; Regs used in ___fladd: [wreg+status,2+status,0+btemp+1]
  5084                           
  5085     0DB0  0875               	movf	___fladd@b+3,w
  5086     0DB1  1283               	bcf	3,5	;RP0=0, select bank0
  5087     0DB2  1303               	bcf	3,6	;RP1=0, select bank0
  5088     0DB3  00A8               	movwf	___fladd@signs
  5089     0DB4                     l2090:
  5090     0DB4  3080               	movlw	128
  5091     0DB5  05A8               	andwf	___fladd@signs,f
  5092     0DB6                     l2092:
  5093     0DB6  0875               	movf	___fladd@b+3,w
  5094     0DB7  00A0               	movwf	??___fladd
  5095     0DB8  0720               	addwf	??___fladd,w
  5096     0DB9  00AA               	movwf	___fladd@bexp
  5097     0DBA                     l2094:
  5098     0DBA  1FF4               	btfss	___fladd@b+2,7
  5099     0DBB  2DBD               	goto	u1981
  5100     0DBC  2DBE               	goto	u1980
  5101     0DBD                     u1981:
  5102     0DBD  2DBF               	goto	l2098
  5103     0DBE                     u1980:
  5104     0DBE                     l2096:
  5105     0DBE  142A               	bsf	___fladd@bexp,0
  5106     0DBF                     l2098:
  5107     0DBF  082A               	movf	___fladd@bexp,w
  5108     0DC0  1903               	btfsc	3,2
  5109     0DC1  2DC3               	goto	u1991
  5110     0DC2  2DC4               	goto	u1990
  5111     0DC3                     u1991:
  5112     0DC3  2DD4               	goto	l2108
  5113     0DC4                     u1990:
  5114     0DC4                     l2100:
  5115     0DC4  0A2A               	incf	___fladd@bexp,w
  5116     0DC5  1D03               	btfss	3,2
  5117     0DC6  2DC8               	goto	u2001
  5118     0DC7  2DC9               	goto	u2000
  5119     0DC8                     u2001:
  5120     0DC8  2DD1               	goto	l2104
  5121     0DC9                     u2000:
  5122     0DC9                     l2102:
  5123     0DC9  3000               	movlw	0
  5124     0DCA  00F5               	movwf	___fladd@b+3
  5125     0DCB  3000               	movlw	0
  5126     0DCC  00F4               	movwf	___fladd@b+2
  5127     0DCD  3000               	movlw	0
  5128     0DCE  00F3               	movwf	___fladd@b+1
  5129     0DCF  3000               	movlw	0
  5130     0DD0  00F2               	movwf	___fladd@b
  5131     0DD1                     l2104:
  5132     0DD1  17F4               	bsf	___fladd@b+2,7
  5133     0DD2                     l2106:
  5134     0DD2  01F5               	clrf	___fladd@b+3
  5135     0DD3  2DDC               	goto	l750
  5136     0DD4                     l2108:
  5137     0DD4  3000               	movlw	0
  5138     0DD5  00F5               	movwf	___fladd@b+3
  5139     0DD6  3000               	movlw	0
  5140     0DD7  00F4               	movwf	___fladd@b+2
  5141     0DD8  3000               	movlw	0
  5142     0DD9  00F3               	movwf	___fladd@b+1
  5143     0DDA  3000               	movlw	0
  5144     0DDB  00F2               	movwf	___fladd@b
  5145     0DDC                     l750:
  5146     0DDC  0879               	movf	___fladd@a+3,w
  5147     0DDD  00A9               	movwf	___fladd@aexp
  5148     0DDE                     l2110:
  5149     0DDE  3080               	movlw	128
  5150     0DDF  05A9               	andwf	___fladd@aexp,f
  5151     0DE0                     l2112:
  5152     0DE0  0829               	movf	___fladd@aexp,w
  5153     0DE1  0628               	xorwf	___fladd@signs,w
  5154     0DE2  1903               	skipnz
  5155     0DE3  2DE5               	goto	u2011
  5156     0DE4  2DE6               	goto	u2010
  5157     0DE5                     u2011:
  5158     0DE5  2DE7               	goto	l2116
  5159     0DE6                     u2010:
  5160     0DE6                     l2114:
  5161     0DE6  1728               	bsf	___fladd@signs,6
  5162     0DE7                     l2116:
  5163     0DE7  0879               	movf	___fladd@a+3,w
  5164     0DE8  00A0               	movwf	??___fladd
  5165     0DE9  0720               	addwf	??___fladd,w
  5166     0DEA  00A9               	movwf	___fladd@aexp
  5167     0DEB                     l2118:
  5168     0DEB  1FF8               	btfss	___fladd@a+2,7
  5169     0DEC  2DEE               	goto	u2021
  5170     0DED  2DEF               	goto	u2020
  5171     0DEE                     u2021:
  5172     0DEE  2DF0               	goto	l2122
  5173     0DEF                     u2020:
  5174     0DEF                     l2120:
  5175     0DEF  1429               	bsf	___fladd@aexp,0
  5176     0DF0                     l2122:
  5177     0DF0  0829               	movf	___fladd@aexp,w
  5178     0DF1  1903               	btfsc	3,2
  5179     0DF2  2DF4               	goto	u2031
  5180     0DF3  2DF5               	goto	u2030
  5181     0DF4                     u2031:
  5182     0DF4  2E05               	goto	l2132
  5183     0DF5                     u2030:
  5184     0DF5                     l2124:
  5185     0DF5  0A29               	incf	___fladd@aexp,w
  5186     0DF6  1D03               	btfss	3,2
  5187     0DF7  2DF9               	goto	u2041
  5188     0DF8  2DFA               	goto	u2040
  5189     0DF9                     u2041:
  5190     0DF9  2E02               	goto	l2128
  5191     0DFA                     u2040:
  5192     0DFA                     l2126:
  5193     0DFA  3000               	movlw	0
  5194     0DFB  00F9               	movwf	___fladd@a+3
  5195     0DFC  3000               	movlw	0
  5196     0DFD  00F8               	movwf	___fladd@a+2
  5197     0DFE  3000               	movlw	0
  5198     0DFF  00F7               	movwf	___fladd@a+1
  5199     0E00  3000               	movlw	0
  5200     0E01  00F6               	movwf	___fladd@a
  5201     0E02                     l2128:
  5202     0E02  17F8               	bsf	___fladd@a+2,7
  5203     0E03                     l2130:
  5204     0E03  01F9               	clrf	___fladd@a+3
  5205     0E04  2E0D               	goto	l755
  5206     0E05                     l2132:
  5207     0E05  3000               	movlw	0
  5208     0E06  00F9               	movwf	___fladd@a+3
  5209     0E07  3000               	movlw	0
  5210     0E08  00F8               	movwf	___fladd@a+2
  5211     0E09  3000               	movlw	0
  5212     0E0A  00F7               	movwf	___fladd@a+1
  5213     0E0B  3000               	movlw	0
  5214     0E0C  00F6               	movwf	___fladd@a
  5215     0E0D                     l755:
  5216     0E0D  082A               	movf	___fladd@bexp,w
  5217     0E0E  0229               	subwf	___fladd@aexp,w
  5218     0E0F  1803               	skipnc
  5219     0E10  2E12               	goto	u2051
  5220     0E11  2E13               	goto	u2050
  5221     0E12                     u2051:
  5222     0E12  2E37               	goto	l2168
  5223     0E13                     u2050:
  5224     0E13                     l2134:
  5225     0E13  1F28               	btfss	___fladd@signs,6
  5226     0E14  2E16               	goto	u2061
  5227     0E15  2E17               	goto	u2060
  5228     0E16                     u2061:
  5229     0E16  2E19               	goto	l2138
  5230     0E17                     u2060:
  5231     0E17                     l2136:
  5232     0E17  3080               	movlw	128
  5233     0E18  06A8               	xorwf	___fladd@signs,f
  5234     0E19                     l2138:
  5235     0E19  082A               	movf	___fladd@bexp,w
  5236     0E1A  00AB               	movwf	___fladd@grs
  5237     0E1B                     l2140:
  5238     0E1B  0829               	movf	___fladd@aexp,w
  5239     0E1C  00AA               	movwf	___fladd@bexp
  5240     0E1D                     l2142:
  5241     0E1D  082B               	movf	___fladd@grs,w
  5242     0E1E  00A9               	movwf	___fladd@aexp
  5243     0E1F                     l2144:
  5244     0E1F  0872               	movf	___fladd@b,w
  5245     0E20  00AB               	movwf	___fladd@grs
  5246     0E21                     l2146:
  5247     0E21  0876               	movf	___fladd@a,w
  5248     0E22  00F2               	movwf	___fladd@b
  5249     0E23                     l2148:
  5250     0E23  082B               	movf	___fladd@grs,w
  5251     0E24  00F6               	movwf	___fladd@a
  5252     0E25                     l2150:
  5253     0E25  0873               	movf	___fladd@b+1,w
  5254     0E26  00AB               	movwf	___fladd@grs
  5255     0E27                     l2152:
  5256     0E27  0877               	movf	___fladd@a+1,w
  5257     0E28  00F3               	movwf	___fladd@b+1
  5258     0E29                     l2154:
  5259     0E29  082B               	movf	___fladd@grs,w
  5260     0E2A  00F7               	movwf	___fladd@a+1
  5261     0E2B                     l2156:
  5262     0E2B  0874               	movf	___fladd@b+2,w
  5263     0E2C  00AB               	movwf	___fladd@grs
  5264     0E2D                     l2158:
  5265     0E2D  0878               	movf	___fladd@a+2,w
  5266     0E2E  00F4               	movwf	___fladd@b+2
  5267     0E2F                     l2160:
  5268     0E2F  082B               	movf	___fladd@grs,w
  5269     0E30  00F8               	movwf	___fladd@a+2
  5270     0E31                     l2162:
  5271     0E31  0875               	movf	___fladd@b+3,w
  5272     0E32  00AB               	movwf	___fladd@grs
  5273     0E33                     l2164:
  5274     0E33  0879               	movf	___fladd@a+3,w
  5275     0E34  00F5               	movwf	___fladd@b+3
  5276     0E35                     l2166:
  5277     0E35  082B               	movf	___fladd@grs,w
  5278     0E36  00F9               	movwf	___fladd@a+3
  5279     0E37                     l2168:
  5280     0E37  01AB               	clrf	___fladd@grs
  5281     0E38                     l2170:
  5282     0E38  0829               	movf	___fladd@aexp,w
  5283     0E39  00A0               	movwf	??___fladd
  5284     0E3A  01A1               	clrf	??___fladd+1
  5285     0E3B  0821               	movf	??___fladd+1,w
  5286     0E3C  00A3               	movwf	??___fladd+3
  5287     0E3D  082A               	movf	___fladd@bexp,w
  5288     0E3E  0220               	subwf	??___fladd,w
  5289     0E3F  00A2               	movwf	??___fladd+2
  5290     0E40  1C03               	skipc
  5291     0E41  03A3               	decf	??___fladd+3,f
  5292     0E42  0823               	movf	??___fladd+3,w
  5293     0E43  3A80               	xorlw	128
  5294     0E44  00FF               	movwf	btemp+1
  5295     0E45  3080               	movlw	128
  5296     0E46  027F               	subwf	btemp+1,w
  5297     0E47  1D03               	skipz
  5298     0E48  2E4B               	goto	u2075
  5299     0E49  301A               	movlw	26
  5300     0E4A  0222               	subwf	??___fladd+2,w
  5301     0E4B                     u2075:
  5302     0E4B  1C03               	skipc
  5303     0E4C  2E4E               	goto	u2071
  5304     0E4D  2E4F               	goto	u2070
  5305     0E4E                     u2071:
  5306     0E4E  2E84               	goto	l2186
  5307     0E4F                     u2070:
  5308     0E4F                     l2172:
  5309     0E4F  0875               	movf	___fladd@b+3,w
  5310     0E50  0474               	iorwf	___fladd@b+2,w
  5311     0E51  0473               	iorwf	___fladd@b+1,w
  5312     0E52  0472               	iorwf	___fladd@b,w
  5313     0E53  1D03               	skipz
  5314     0E54  2E56               	goto	u2081
  5315     0E55  2E58               	goto	u2080
  5316     0E56                     u2081:
  5317     0E56  3001               	movlw	1
  5318     0E57  2E59               	goto	u2090
  5319     0E58                     u2080:
  5320     0E58  3000               	movlw	0
  5321     0E59                     u2090:
  5322     0E59  1283               	bcf	3,5	;RP0=0, select bank0
  5323     0E5A  1303               	bcf	3,6	;RP1=0, select bank0
  5324     0E5B  00AB               	movwf	___fladd@grs
  5325     0E5C  3000               	movlw	0
  5326     0E5D  00F5               	movwf	___fladd@b+3
  5327     0E5E  3000               	movlw	0
  5328     0E5F  00F4               	movwf	___fladd@b+2
  5329     0E60  3000               	movlw	0
  5330     0E61  00F3               	movwf	___fladd@b+1
  5331     0E62  3000               	movlw	0
  5332     0E63  00F2               	movwf	___fladd@b
  5333     0E64  0829               	movf	___fladd@aexp,w
  5334     0E65  00AA               	movwf	___fladd@bexp
  5335     0E66  2E8C               	goto	l759
  5336     0E67                     l761:
  5337     0E67  1C2B               	btfss	___fladd@grs,0
  5338     0E68  2E6A               	goto	u2101
  5339     0E69  2E6B               	goto	u2100
  5340     0E6A                     u2101:
  5341     0E6A  2E72               	goto	l2176
  5342     0E6B                     u2100:
  5343     0E6B                     l2174:
  5344     0E6B  082B               	movf	___fladd@grs,w
  5345     0E6C  00A0               	movwf	??___fladd
  5346     0E6D  1003               	clrc
  5347     0E6E  0C20               	rrf	??___fladd,w
  5348     0E6F  3801               	iorlw	1
  5349     0E70  00AB               	movwf	___fladd@grs
  5350     0E71  2E74               	goto	l2178
  5351     0E72                     l2176:
  5352     0E72  1003               	clrc
  5353     0E73  0CAB               	rrf	___fladd@grs,f
  5354     0E74                     l2178:
  5355     0E74  1C72               	btfss	___fladd@b,0
  5356     0E75  2E77               	goto	u2111
  5357     0E76  2E78               	goto	u2110
  5358     0E77                     u2111:
  5359     0E77  2E79               	goto	l2182
  5360     0E78                     u2110:
  5361     0E78                     l2180:
  5362     0E78  17AB               	bsf	___fladd@grs,7
  5363     0E79                     l2182:
  5364     0E79  3001               	movlw	1
  5365     0E7A  00A0               	movwf	??___fladd
  5366     0E7B                     u2125:
  5367     0E7B  0D75               	rlf	___fladd@b+3,w
  5368     0E7C  0CF5               	rrf	___fladd@b+3,f
  5369     0E7D  0CF4               	rrf	___fladd@b+2,f
  5370     0E7E  0CF3               	rrf	___fladd@b+1,f
  5371     0E7F  0CF2               	rrf	___fladd@b,f
  5372     0E80  0BA0               	decfsz	??___fladd& (0+127),f
  5373     0E81  2E7B               	goto	u2125
  5374     0E82                     l2184:
  5375     0E82  3001               	movlw	1
  5376     0E83  07AA               	addwf	___fladd@bexp,f
  5377     0E84                     l2186:
  5378     0E84  1283               	bcf	3,5	;RP0=0, select bank0
  5379     0E85  1303               	bcf	3,6	;RP1=0, select bank0
  5380     0E86  0829               	movf	___fladd@aexp,w
  5381     0E87  022A               	subwf	___fladd@bexp,w
  5382     0E88  1C03               	skipc
  5383     0E89  2E8B               	goto	u2131
  5384     0E8A  2E8C               	goto	u2130
  5385     0E8B                     u2131:
  5386     0E8B  2E67               	goto	l761
  5387     0E8C                     u2130:
  5388     0E8C                     l759:
  5389     0E8C  1B28               	btfsc	___fladd@signs,6
  5390     0E8D  2E8F               	goto	u2141
  5391     0E8E  2E90               	goto	u2140
  5392     0E8F                     u2141:
  5393     0E8F  2ED7               	goto	l2212
  5394     0E90                     u2140:
  5395     0E90                     l2188:
  5396     0E90  082A               	movf	___fladd@bexp,w
  5397     0E91  1D03               	btfss	3,2
  5398     0E92  2E94               	goto	u2151
  5399     0E93  2E95               	goto	u2150
  5400     0E94                     u2151:
  5401     0E94  2E9E               	goto	l2194
  5402     0E95                     u2150:
  5403     0E95                     l2190:
  5404     0E95  3000               	movlw	0
  5405     0E96  00F5               	movwf	?___fladd+3
  5406     0E97  3000               	movlw	0
  5407     0E98  00F4               	movwf	?___fladd+2
  5408     0E99  3000               	movlw	0
  5409     0E9A  00F3               	movwf	?___fladd+1
  5410     0E9B  3000               	movlw	0
  5411     0E9C  00F2               	movwf	?___fladd
  5412     0E9D  2FFF               	goto	l768
  5413     0E9E                     l2194:
  5414     0E9E  0876               	movf	___fladd@a,w
  5415     0E9F  07F2               	addwf	___fladd@b,f
  5416     0EA0  0877               	movf	___fladd@a+1,w
  5417     0EA1  1103               	clrz
  5418     0EA2  1803               	skipnc
  5419     0EA3  3E01               	addlw	1
  5420     0EA4  1903               	skipnz
  5421     0EA5  2EA7               	goto	u2161
  5422     0EA6  07F3               	addwf	___fladd@b+1,f
  5423     0EA7                     u2161:
  5424     0EA7  0878               	movf	___fladd@a+2,w
  5425     0EA8  1103               	clrz
  5426     0EA9  1803               	skipnc
  5427     0EAA  3E01               	addlw	1
  5428     0EAB  1903               	skipnz
  5429     0EAC  2EAE               	goto	u2162
  5430     0EAD  07F4               	addwf	___fladd@b+2,f
  5431     0EAE                     u2162:
  5432     0EAE  0879               	movf	___fladd@a+3,w
  5433     0EAF  1103               	clrz
  5434     0EB0  1803               	skipnc
  5435     0EB1  3E01               	addlw	1
  5436     0EB2  1903               	skipnz
  5437     0EB3  2EB5               	goto	u2163
  5438     0EB4  07F5               	addwf	___fladd@b+3,f
  5439     0EB5                     u2163:
  5440     0EB5                     l2196:
  5441     0EB5  1C75               	btfss	___fladd@b+3,0
  5442     0EB6  2EB8               	goto	u2171
  5443     0EB7  2EB9               	goto	u2170
  5444     0EB8                     u2171:
  5445     0EB8  2F8B               	goto	l2248
  5446     0EB9                     u2170:
  5447     0EB9                     l2198:
  5448     0EB9  1C2B               	btfss	___fladd@grs,0
  5449     0EBA  2EBC               	goto	u2181
  5450     0EBB  2EBD               	goto	u2180
  5451     0EBC                     u2181:
  5452     0EBC  2EC4               	goto	l2202
  5453     0EBD                     u2180:
  5454     0EBD                     l2200:
  5455     0EBD  082B               	movf	___fladd@grs,w
  5456     0EBE  00A0               	movwf	??___fladd
  5457     0EBF  1003               	clrc
  5458     0EC0  0C20               	rrf	??___fladd,w
  5459     0EC1  3801               	iorlw	1
  5460     0EC2  00AB               	movwf	___fladd@grs
  5461     0EC3  2EC6               	goto	l2204
  5462     0EC4                     l2202:
  5463     0EC4  1003               	clrc
  5464     0EC5  0CAB               	rrf	___fladd@grs,f
  5465     0EC6                     l2204:
  5466     0EC6  1C72               	btfss	___fladd@b,0
  5467     0EC7  2EC9               	goto	u2191
  5468     0EC8  2ECA               	goto	u2190
  5469     0EC9                     u2191:
  5470     0EC9  2ECB               	goto	l2208
  5471     0ECA                     u2190:
  5472     0ECA                     l2206:
  5473     0ECA  17AB               	bsf	___fladd@grs,7
  5474     0ECB                     l2208:
  5475     0ECB  3001               	movlw	1
  5476     0ECC  00A0               	movwf	??___fladd
  5477     0ECD                     u2205:
  5478     0ECD  0D75               	rlf	___fladd@b+3,w
  5479     0ECE  0CF5               	rrf	___fladd@b+3,f
  5480     0ECF  0CF4               	rrf	___fladd@b+2,f
  5481     0ED0  0CF3               	rrf	___fladd@b+1,f
  5482     0ED1  0CF2               	rrf	___fladd@b,f
  5483     0ED2  0BA0               	decfsz	??___fladd& (0+127),f
  5484     0ED3  2ECD               	goto	u2205
  5485     0ED4                     l2210:
  5486     0ED4  3001               	movlw	1
  5487     0ED5  07AA               	addwf	___fladd@bexp,f
  5488     0ED6  2F8B               	goto	l2248
  5489     0ED7                     l2212:
  5490     0ED7  0875               	movf	___fladd@b+3,w
  5491     0ED8  3A80               	xorlw	128
  5492     0ED9  00FF               	movwf	btemp+1
  5493     0EDA  0879               	movf	___fladd@a+3,w
  5494     0EDB  3A80               	xorlw	128
  5495     0EDC  027F               	subwf	btemp+1,w
  5496     0EDD  1D03               	skipz
  5497     0EDE  2EE9               	goto	u2213
  5498     0EDF  0878               	movf	___fladd@a+2,w
  5499     0EE0  0274               	subwf	___fladd@b+2,w
  5500     0EE1  1D03               	skipz
  5501     0EE2  2EE9               	goto	u2213
  5502     0EE3  0877               	movf	___fladd@a+1,w
  5503     0EE4  0273               	subwf	___fladd@b+1,w
  5504     0EE5  1D03               	skipz
  5505     0EE6  2EE9               	goto	u2213
  5506     0EE7  0876               	movf	___fladd@a,w
  5507     0EE8  0272               	subwf	___fladd@b,w
  5508     0EE9                     u2213:
  5509     0EE9  1803               	skipnc
  5510     0EEA  2EEC               	goto	u2211
  5511     0EEB  2EED               	goto	u2210
  5512     0EEC                     u2211:
  5513     0EEC  2F44               	goto	l2224
  5514     0EED                     u2210:
  5515     0EED                     l2214:
  5516     0EED  30FF               	movlw	255
  5517     0EEE  00A0               	movwf	??___fladd
  5518     0EEF  30FF               	movlw	255
  5519     0EF0  00A1               	movwf	??___fladd+1
  5520     0EF1  30FF               	movlw	255
  5521     0EF2  00A2               	movwf	??___fladd+2
  5522     0EF3  30FF               	movlw	255
  5523     0EF4  00A3               	movwf	??___fladd+3
  5524     0EF5  0876               	movf	___fladd@a,w
  5525     0EF6  00A4               	movwf	??___fladd+4
  5526     0EF7  0877               	movf	___fladd@a+1,w
  5527     0EF8  00A5               	movwf	??___fladd+5
  5528     0EF9  0878               	movf	___fladd@a+2,w
  5529     0EFA  00A6               	movwf	??___fladd+6
  5530     0EFB  0879               	movf	___fladd@a+3,w
  5531     0EFC  00A7               	movwf	??___fladd+7
  5532     0EFD  0872               	movf	___fladd@b,w
  5533     0EFE  02A4               	subwf	??___fladd+4,f
  5534     0EFF  0873               	movf	___fladd@b+1,w
  5535     0F00  1C03               	skipc
  5536     0F01  0F73               	incfsz	___fladd@b+1,w
  5537     0F02  2F04               	goto	u2221
  5538     0F03  2F05               	goto	u2222
  5539     0F04                     u2221:
  5540     0F04  02A5               	subwf	??___fladd+5,f
  5541     0F05                     u2222:
  5542     0F05  0874               	movf	___fladd@b+2,w
  5543     0F06  1C03               	skipc
  5544     0F07  0F74               	incfsz	___fladd@b+2,w
  5545     0F08  2F0A               	goto	u2223
  5546     0F09  2F0B               	goto	u2224
  5547     0F0A                     u2223:
  5548     0F0A  02A6               	subwf	??___fladd+6,f
  5549     0F0B                     u2224:
  5550     0F0B  0875               	movf	___fladd@b+3,w
  5551     0F0C  1C03               	skipc
  5552     0F0D  0F75               	incfsz	___fladd@b+3,w
  5553     0F0E  2F10               	goto	u2225
  5554     0F0F  2F11               	goto	u2226
  5555     0F10                     u2225:
  5556     0F10  02A7               	subwf	??___fladd+7,f
  5557     0F11                     u2226:
  5558     0F11  0824               	movf	??___fladd+4,w
  5559     0F12  07A0               	addwf	??___fladd,f
  5560     0F13  0825               	movf	??___fladd+5,w
  5561     0F14  1803               	skipnc
  5562     0F15  0F25               	incfsz	??___fladd+5,w
  5563     0F16  2F18               	goto	u2230
  5564     0F17  2F19               	goto	u2231
  5565     0F18                     u2230:
  5566     0F18  07A1               	addwf	??___fladd+1,f
  5567     0F19                     u2231:
  5568     0F19  0826               	movf	??___fladd+6,w
  5569     0F1A  1803               	skipnc
  5570     0F1B  0F26               	incfsz	??___fladd+6,w
  5571     0F1C  2F1E               	goto	u2232
  5572     0F1D  2F1F               	goto	u2233
  5573     0F1E                     u2232:
  5574     0F1E  07A2               	addwf	??___fladd+2,f
  5575     0F1F                     u2233:
  5576     0F1F  0827               	movf	??___fladd+7,w
  5577     0F20  1803               	skipnc
  5578     0F21  0A27               	incf	??___fladd+7,w
  5579     0F22  07A3               	addwf	??___fladd+3,f
  5580     0F23  0823               	movf	??___fladd+3,w
  5581     0F24  00F5               	movwf	___fladd@b+3
  5582     0F25  0822               	movf	??___fladd+2,w
  5583     0F26  00F4               	movwf	___fladd@b+2
  5584     0F27  0821               	movf	??___fladd+1,w
  5585     0F28  00F3               	movwf	___fladd@b+1
  5586     0F29  0820               	movf	??___fladd,w
  5587     0F2A  00F2               	movwf	___fladd@b
  5588     0F2B                     l2216:
  5589     0F2B  3080               	movlw	128
  5590     0F2C  06A8               	xorwf	___fladd@signs,f
  5591     0F2D                     l2218:
  5592     0F2D  032B               	decf	___fladd@grs,w
  5593     0F2E  3AFF               	xorlw	255
  5594     0F2F  00AB               	movwf	___fladd@grs
  5595     0F30                     l2220:
  5596     0F30  082B               	movf	___fladd@grs,w
  5597     0F31  1D03               	btfss	3,2
  5598     0F32  2F34               	goto	u2241
  5599     0F33  2F35               	goto	u2240
  5600     0F34                     u2241:
  5601     0F34  2F52               	goto	l776
  5602     0F35                     u2240:
  5603     0F35                     l2222:
  5604     0F35  3001               	movlw	1
  5605     0F36  07F2               	addwf	___fladd@b,f
  5606     0F37  3000               	movlw	0
  5607     0F38  1803               	skipnc
  5608     0F39  3001               	movlw	1
  5609     0F3A  07F3               	addwf	___fladd@b+1,f
  5610     0F3B  3000               	movlw	0
  5611     0F3C  1803               	skipnc
  5612     0F3D  3001               	movlw	1
  5613     0F3E  07F4               	addwf	___fladd@b+2,f
  5614     0F3F  3000               	movlw	0
  5615     0F40  1803               	skipnc
  5616     0F41  3001               	movlw	1
  5617     0F42  07F5               	addwf	___fladd@b+3,f
  5618     0F43  2F52               	goto	l776
  5619     0F44                     l2224:
  5620     0F44  0876               	movf	___fladd@a,w
  5621     0F45  02F2               	subwf	___fladd@b,f
  5622     0F46  0877               	movf	___fladd@a+1,w
  5623     0F47  1C03               	skipc
  5624     0F48  0F77               	incfsz	___fladd@a+1,w
  5625     0F49  02F3               	subwf	___fladd@b+1,f
  5626     0F4A  0878               	movf	___fladd@a+2,w
  5627     0F4B  1C03               	skipc
  5628     0F4C  0F78               	incfsz	___fladd@a+2,w
  5629     0F4D  02F4               	subwf	___fladd@b+2,f
  5630     0F4E  0879               	movf	___fladd@a+3,w
  5631     0F4F  1C03               	skipc
  5632     0F50  0F79               	incfsz	___fladd@a+3,w
  5633     0F51  02F5               	subwf	___fladd@b+3,f
  5634     0F52                     l776:
  5635     0F52  0875               	movf	___fladd@b+3,w
  5636     0F53  0474               	iorwf	___fladd@b+2,w
  5637     0F54  0473               	iorwf	___fladd@b+1,w
  5638     0F55  0472               	iorwf	___fladd@b,w
  5639     0F56  1D03               	skipz
  5640     0F57  2F59               	goto	u2251
  5641     0F58  2F5A               	goto	u2250
  5642     0F59                     u2251:
  5643     0F59  2F87               	goto	l2246
  5644     0F5A                     u2250:
  5645     0F5A                     l2226:
  5646     0F5A  082B               	movf	___fladd@grs,w
  5647     0F5B  1D03               	btfss	3,2
  5648     0F5C  2F5E               	goto	u2261
  5649     0F5D  2F5F               	goto	u2260
  5650     0F5E                     u2261:
  5651     0F5E  2F87               	goto	l2246
  5652     0F5F                     u2260:
  5653     0F5F                     l2228:
  5654     0F5F  3000               	movlw	0
  5655     0F60  00F5               	movwf	?___fladd+3
  5656     0F61  3000               	movlw	0
  5657     0F62  00F4               	movwf	?___fladd+2
  5658     0F63  3000               	movlw	0
  5659     0F64  00F3               	movwf	?___fladd+1
  5660     0F65  3000               	movlw	0
  5661     0F66  00F2               	movwf	?___fladd
  5662     0F67  2FFF               	goto	l768
  5663     0F68                     l2232:
  5664     0F68  3001               	movlw	1
  5665     0F69  00A0               	movwf	??___fladd
  5666     0F6A                     u2275:
  5667     0F6A  1003               	clrc
  5668     0F6B  0DF2               	rlf	___fladd@b,f
  5669     0F6C  0DF3               	rlf	___fladd@b+1,f
  5670     0F6D  0DF4               	rlf	___fladd@b+2,f
  5671     0F6E  0DF5               	rlf	___fladd@b+3,f
  5672     0F6F  0BA0               	decfsz	??___fladd,f
  5673     0F70  2F6A               	goto	u2275
  5674     0F71                     l2234:
  5675     0F71  1FAB               	btfss	___fladd@grs,7
  5676     0F72  2F74               	goto	u2281
  5677     0F73  2F75               	goto	u2280
  5678     0F74                     u2281:
  5679     0F74  2F76               	goto	l780
  5680     0F75                     u2280:
  5681     0F75                     l2236:
  5682     0F75  1472               	bsf	___fladd@b,0
  5683     0F76                     l780:
  5684     0F76  1C2B               	btfss	___fladd@grs,0
  5685     0F77  2F79               	goto	u2291
  5686     0F78  2F7A               	goto	u2290
  5687     0F79                     u2291:
  5688     0F79  2F7E               	goto	l2240
  5689     0F7A                     u2290:
  5690     0F7A                     l2238:
  5691     0F7A  1403               	setc
  5692     0F7B  0D2B               	rlf	___fladd@grs,w
  5693     0F7C  00AB               	movwf	___fladd@grs
  5694     0F7D  2F80               	goto	l2242
  5695     0F7E                     l2240:
  5696     0F7E  1003               	clrc
  5697     0F7F  0DAB               	rlf	___fladd@grs,f
  5698     0F80                     l2242:
  5699     0F80  082A               	movf	___fladd@bexp,w
  5700     0F81  1903               	btfsc	3,2
  5701     0F82  2F84               	goto	u2301
  5702     0F83  2F85               	goto	u2300
  5703     0F84                     u2301:
  5704     0F84  2F87               	goto	l2246
  5705     0F85                     u2300:
  5706     0F85                     l2244:
  5707     0F85  3001               	movlw	1
  5708     0F86  02AA               	subwf	___fladd@bexp,f
  5709     0F87                     l2246:
  5710     0F87  1FF4               	btfss	___fladd@b+2,7
  5711     0F88  2F8A               	goto	u2311
  5712     0F89  2F8B               	goto	u2310
  5713     0F8A                     u2311:
  5714     0F8A  2F68               	goto	l2232
  5715     0F8B                     u2310:
  5716     0F8B                     l2248:
  5717     0F8B  01A9               	clrf	___fladd@aexp
  5718     0F8C                     l2250:
  5719     0F8C  1FAB               	btfss	___fladd@grs,7
  5720     0F8D  2F8F               	goto	u2321
  5721     0F8E  2F90               	goto	u2320
  5722     0F8F                     u2321:
  5723     0F8F  2F9E               	goto	l2258
  5724     0F90                     u2320:
  5725     0F90                     l2252:
  5726     0F90  082B               	movf	___fladd@grs,w
  5727     0F91  397F               	andlw	127
  5728     0F92  1903               	btfsc	3,2
  5729     0F93  2F95               	goto	u2331
  5730     0F94  2F96               	goto	u2330
  5731     0F95                     u2331:
  5732     0F95  2F99               	goto	l786
  5733     0F96                     u2330:
  5734     0F96                     l2254:
  5735     0F96  3001               	movlw	1
  5736     0F97  00A9               	movwf	___fladd@aexp
  5737     0F98  2F9E               	goto	l2258
  5738     0F99                     l786:
  5739     0F99  1C72               	btfss	___fladd@b,0
  5740     0F9A  2F9C               	goto	u2341
  5741     0F9B  2F9D               	goto	u2340
  5742     0F9C                     u2341:
  5743     0F9C  2F9E               	goto	l2258
  5744     0F9D                     u2340:
  5745     0F9D  2F96               	goto	l2254
  5746     0F9E                     l2258:
  5747     0F9E  0829               	movf	___fladd@aexp,w
  5748     0F9F  1903               	btfsc	3,2
  5749     0FA0  2FA2               	goto	u2351
  5750     0FA1  2FA3               	goto	u2350
  5751     0FA2                     u2351:
  5752     0FA2  2FD5               	goto	l789
  5753     0FA3                     u2350:
  5754     0FA3                     l2260:
  5755     0FA3  3001               	movlw	1
  5756     0FA4  07F2               	addwf	___fladd@b,f
  5757     0FA5  3000               	movlw	0
  5758     0FA6  1803               	skipnc
  5759     0FA7  3001               	movlw	1
  5760     0FA8  07F3               	addwf	___fladd@b+1,f
  5761     0FA9  3000               	movlw	0
  5762     0FAA  1803               	skipnc
  5763     0FAB  3001               	movlw	1
  5764     0FAC  07F4               	addwf	___fladd@b+2,f
  5765     0FAD  3000               	movlw	0
  5766     0FAE  1803               	skipnc
  5767     0FAF  3001               	movlw	1
  5768     0FB0  07F5               	addwf	___fladd@b+3,f
  5769     0FB1                     l2262:
  5770     0FB1  1C75               	btfss	___fladd@b+3,0
  5771     0FB2  2FB4               	goto	u2361
  5772     0FB3  2FB5               	goto	u2360
  5773     0FB4                     u2361:
  5774     0FB4  2FD5               	goto	l789
  5775     0FB5                     u2360:
  5776     0FB5                     l2264:
  5777     0FB5  0872               	movf	___fladd@b,w
  5778     0FB6  00A0               	movwf	??___fladd
  5779     0FB7  0873               	movf	___fladd@b+1,w
  5780     0FB8  00A1               	movwf	??___fladd+1
  5781     0FB9  0874               	movf	___fladd@b+2,w
  5782     0FBA  00A2               	movwf	??___fladd+2
  5783     0FBB  0875               	movf	___fladd@b+3,w
  5784     0FBC  00A3               	movwf	??___fladd+3
  5785     0FBD  3001               	movlw	1
  5786     0FBE  00A4               	movwf	??___fladd+4
  5787     0FBF                     u2375:
  5788     0FBF  0D23               	rlf	??___fladd+3,w
  5789     0FC0  0CA3               	rrf	??___fladd+3,f
  5790     0FC1  0CA2               	rrf	??___fladd+2,f
  5791     0FC2  0CA1               	rrf	??___fladd+1,f
  5792     0FC3  0CA0               	rrf	??___fladd,f
  5793     0FC4                     u2370:
  5794     0FC4  0BA4               	decfsz	??___fladd+4,f
  5795     0FC5  2FBF               	goto	u2375
  5796     0FC6  0823               	movf	??___fladd+3,w
  5797     0FC7  00F5               	movwf	___fladd@b+3
  5798     0FC8  0822               	movf	??___fladd+2,w
  5799     0FC9  00F4               	movwf	___fladd@b+2
  5800     0FCA  0821               	movf	??___fladd+1,w
  5801     0FCB  00F3               	movwf	___fladd@b+1
  5802     0FCC  0820               	movf	??___fladd,w
  5803     0FCD  00F2               	movwf	___fladd@b
  5804     0FCE  0A2A               	incf	___fladd@bexp,w
  5805     0FCF  1903               	btfsc	3,2
  5806     0FD0  2FD2               	goto	u2381
  5807     0FD1  2FD3               	goto	u2380
  5808     0FD2                     u2381:
  5809     0FD2  2FD5               	goto	l789
  5810     0FD3                     u2380:
  5811     0FD3                     l2266:
  5812     0FD3  3001               	movlw	1
  5813     0FD4  07AA               	addwf	___fladd@bexp,f
  5814     0FD5                     l789:
  5815     0FD5  0A2A               	incf	___fladd@bexp,w
  5816     0FD6  1903               	btfsc	3,2
  5817     0FD7  2FD9               	goto	u2391
  5818     0FD8  2FDA               	goto	u2390
  5819     0FD9                     u2391:
  5820     0FD9  2FDF               	goto	l2270
  5821     0FDA                     u2390:
  5822     0FDA                     l2268:
  5823     0FDA  082A               	movf	___fladd@bexp,w
  5824     0FDB  1D03               	btfss	3,2
  5825     0FDC  2FDE               	goto	u2401
  5826     0FDD  2FDF               	goto	u2400
  5827     0FDE                     u2401:
  5828     0FDE  2FED               	goto	l2276
  5829     0FDF                     u2400:
  5830     0FDF                     l2270:
  5831     0FDF  3000               	movlw	0
  5832     0FE0  00F5               	movwf	___fladd@b+3
  5833     0FE1  3000               	movlw	0
  5834     0FE2  00F4               	movwf	___fladd@b+2
  5835     0FE3  3000               	movlw	0
  5836     0FE4  00F3               	movwf	___fladd@b+1
  5837     0FE5  3000               	movlw	0
  5838     0FE6  00F2               	movwf	___fladd@b
  5839     0FE7                     l2272:
  5840     0FE7  082A               	movf	___fladd@bexp,w
  5841     0FE8  1D03               	btfss	3,2
  5842     0FE9  2FEB               	goto	u2411
  5843     0FEA  2FEC               	goto	u2410
  5844     0FEB                     u2411:
  5845     0FEB  2FED               	goto	l2276
  5846     0FEC                     u2410:
  5847     0FEC                     l2274:
  5848     0FEC  01A8               	clrf	___fladd@signs
  5849     0FED                     l2276:
  5850     0FED  1C2A               	btfss	___fladd@bexp,0
  5851     0FEE  2FF0               	goto	u2421
  5852     0FEF  2FF1               	goto	u2420
  5853     0FF0                     u2421:
  5854     0FF0  2FF3               	goto	l2280
  5855     0FF1                     u2420:
  5856     0FF1                     l2278:
  5857     0FF1  17F4               	bsf	___fladd@b+2,7
  5858     0FF2  2FF5               	goto	l797
  5859     0FF3                     l2280:
  5860     0FF3  307F               	movlw	127
  5861     0FF4  05F4               	andwf	___fladd@b+2,f
  5862     0FF5                     l797:
  5863     0FF5  082A               	movf	___fladd@bexp,w
  5864     0FF6  00A0               	movwf	??___fladd
  5865     0FF7  1003               	clrc
  5866     0FF8  0C20               	rrf	??___fladd,w
  5867     0FF9  00F5               	movwf	___fladd@b+3
  5868     0FFA                     l2282:
  5869     0FFA  1FA8               	btfss	___fladd@signs,7
  5870     0FFB  2FFD               	goto	u2431
  5871     0FFC  2FFE               	goto	u2430
  5872     0FFD                     u2431:
  5873     0FFD  2FFF               	goto	l798
  5874     0FFE                     u2430:
  5875     0FFE                     l2284:
  5876     0FFE  17F5               	bsf	___fladd@b+3,7
  5877     0FFF                     l798:
  5878     0FFF                     l768:
  5879     0FFF  0008               	return
  5880     1000                     __end_of___fladd:
  5881                           
  5882                           	psect	text11
  5883     0421                     __ptext11:	
  5884 ;; *************** function ___flmul *****************
  5885 ;; Defined at:
  5886 ;;		line 8 in file "D:\Aarav study\pic\sources\c99\common\sprcmul.c"
  5887 ;; Parameters:    Size  Location     Type
  5888 ;;  b               4    6[BANK0 ] unsigned char 
  5889 ;;  a               4   10[BANK0 ] unsigned char 
  5890 ;; Auto vars:     Size  Location     Type
  5891 ;;  prod            4   26[BANK0 ] struct .
  5892 ;;  grs             4   21[BANK0 ] unsigned long 
  5893 ;;  temp            2   30[BANK0 ] struct .
  5894 ;;  bexp            1   25[BANK0 ] unsigned char 
  5895 ;;  aexp            1   20[BANK0 ] unsigned char 
  5896 ;;  sign            1   19[BANK0 ] unsigned char 
  5897 ;; Return value:  Size  Location     Type
  5898 ;;                  4    6[BANK0 ] unsigned char 
  5899 ;; Registers used:
  5900 ;;		wreg, status,2, status,0, btemp+1, pclath, cstack
  5901 ;; Tracked objects:
  5902 ;;		On entry : 0/0
  5903 ;;		On exit  : 0/0
  5904 ;;		Unchanged: 0/0
  5905 ;; Data sizes:     COMMON   BANK0   BANK1   BANK3   BANK2
  5906 ;;      Params:         0       8       0       0       0
  5907 ;;      Locals:         0      13       0       0       0
  5908 ;;      Temps:          0       5       0       0       0
  5909 ;;      Totals:         0      26       0       0       0
  5910 ;;Total ram usage:       26 bytes
  5911 ;; Hardware stack levels used: 1
  5912 ;; Hardware stack levels required when called: 2
  5913 ;; This function calls:
  5914 ;;		__Umul8_16
  5915 ;; This function is called by:
  5916 ;;		_run_program
  5917 ;; This function uses a non-reentrant model
  5918 ;;
  5919                           
  5920     0421                     ___flmul:	
  5921                           ;psect for function ___flmul
  5922                           
  5923     0421                     l3268:	
  5924                           ;incstack = 0
  5925                           ; Regs used in ___flmul: [wreg+status,2+status,0+btemp+1+pclath+cstack]
  5926                           
  5927     0421  1283               	bcf	3,5	;RP0=0, select bank0
  5928     0422  1303               	bcf	3,6	;RP1=0, select bank0
  5929     0423  0829               	movf	___flmul@b+3,w
  5930     0424  00B3               	movwf	___flmul@sign
  5931     0425                     l3270:
  5932     0425  3080               	movlw	128
  5933     0426  05B3               	andwf	___flmul@sign,f
  5934     0427                     l3272:
  5935     0427  0829               	movf	___flmul@b+3,w
  5936     0428  00AE               	movwf	??___flmul
  5937     0429  072E               	addwf	??___flmul,w
  5938     042A  00B9               	movwf	___flmul@bexp
  5939     042B                     l3274:
  5940     042B  1FA8               	btfss	___flmul@b+2,7
  5941     042C  2C2E               	goto	u3971
  5942     042D  2C2F               	goto	u3970
  5943     042E                     u3971:
  5944     042E  2C30               	goto	l3278
  5945     042F                     u3970:
  5946     042F                     l3276:
  5947     042F  1439               	bsf	___flmul@bexp,0
  5948     0430                     l3278:
  5949     0430  0839               	movf	___flmul@bexp,w
  5950     0431  1903               	btfsc	3,2
  5951     0432  2C34               	goto	u3981
  5952     0433  2C35               	goto	u3980
  5953     0434                     u3981:
  5954     0434  2C44               	goto	l3286
  5955     0435                     u3980:
  5956     0435                     l3280:
  5957     0435  0A39               	incf	___flmul@bexp,w
  5958     0436  1D03               	btfss	3,2
  5959     0437  2C39               	goto	u3991
  5960     0438  2C3A               	goto	u3990
  5961     0439                     u3991:
  5962     0439  2C42               	goto	l3284
  5963     043A                     u3990:
  5964     043A                     l3282:
  5965     043A  3000               	movlw	0
  5966     043B  00A9               	movwf	___flmul@b+3
  5967     043C  3000               	movlw	0
  5968     043D  00A8               	movwf	___flmul@b+2
  5969     043E  3000               	movlw	0
  5970     043F  00A7               	movwf	___flmul@b+1
  5971     0440  3000               	movlw	0
  5972     0441  00A6               	movwf	___flmul@b
  5973     0442                     l3284:
  5974     0442  17A8               	bsf	___flmul@b+2,7
  5975     0443  2C4C               	goto	l3288
  5976     0444                     l3286:
  5977     0444  3000               	movlw	0
  5978     0445  00A9               	movwf	___flmul@b+3
  5979     0446  3000               	movlw	0
  5980     0447  00A8               	movwf	___flmul@b+2
  5981     0448  3000               	movlw	0
  5982     0449  00A7               	movwf	___flmul@b+1
  5983     044A  3000               	movlw	0
  5984     044B  00A6               	movwf	___flmul@b
  5985     044C                     l3288:
  5986     044C  082D               	movf	___flmul@a+3,w
  5987     044D  3980               	andlw	128
  5988     044E  06B3               	xorwf	___flmul@sign,f
  5989     044F                     l3290:
  5990     044F  082D               	movf	___flmul@a+3,w
  5991     0450  00AE               	movwf	??___flmul
  5992     0451  072E               	addwf	??___flmul,w
  5993     0452  00B4               	movwf	___flmul@aexp
  5994     0453                     l3292:
  5995     0453  1FAC               	btfss	___flmul@a+2,7
  5996     0454  2C56               	goto	u4001
  5997     0455  2C57               	goto	u4000
  5998     0456                     u4001:
  5999     0456  2C58               	goto	l3296
  6000     0457                     u4000:
  6001     0457                     l3294:
  6002     0457  1434               	bsf	___flmul@aexp,0
  6003     0458                     l3296:
  6004     0458  0834               	movf	___flmul@aexp,w
  6005     0459  1903               	btfsc	3,2
  6006     045A  2C5C               	goto	u4011
  6007     045B  2C5D               	goto	u4010
  6008     045C                     u4011:
  6009     045C  2C6C               	goto	l3304
  6010     045D                     u4010:
  6011     045D                     l3298:
  6012     045D  0A34               	incf	___flmul@aexp,w
  6013     045E  1D03               	btfss	3,2
  6014     045F  2C61               	goto	u4021
  6015     0460  2C62               	goto	u4020
  6016     0461                     u4021:
  6017     0461  2C6A               	goto	l3302
  6018     0462                     u4020:
  6019     0462                     l3300:
  6020     0462  3000               	movlw	0
  6021     0463  00AD               	movwf	___flmul@a+3
  6022     0464  3000               	movlw	0
  6023     0465  00AC               	movwf	___flmul@a+2
  6024     0466  3000               	movlw	0
  6025     0467  00AB               	movwf	___flmul@a+1
  6026     0468  3000               	movlw	0
  6027     0469  00AA               	movwf	___flmul@a
  6028     046A                     l3302:
  6029     046A  17AC               	bsf	___flmul@a+2,7
  6030     046B  2C74               	goto	l3306
  6031     046C                     l3304:
  6032     046C  3000               	movlw	0
  6033     046D  00AD               	movwf	___flmul@a+3
  6034     046E  3000               	movlw	0
  6035     046F  00AC               	movwf	___flmul@a+2
  6036     0470  3000               	movlw	0
  6037     0471  00AB               	movwf	___flmul@a+1
  6038     0472  3000               	movlw	0
  6039     0473  00AA               	movwf	___flmul@a
  6040     0474                     l3306:
  6041     0474  0834               	movf	___flmul@aexp,w
  6042     0475  1903               	btfsc	3,2
  6043     0476  2C78               	goto	u4031
  6044     0477  2C79               	goto	u4030
  6045     0478                     u4031:
  6046     0478  2C7E               	goto	l3310
  6047     0479                     u4030:
  6048     0479                     l3308:
  6049     0479  0839               	movf	___flmul@bexp,w
  6050     047A  1D03               	btfss	3,2
  6051     047B  2C7D               	goto	u4041
  6052     047C  2C7E               	goto	u4040
  6053     047D                     u4041:
  6054     047D  2C87               	goto	l3314
  6055     047E                     u4040:
  6056     047E                     l3310:
  6057     047E  3000               	movlw	0
  6058     047F  00A9               	movwf	?___flmul+3
  6059     0480  3000               	movlw	0
  6060     0481  00A8               	movwf	?___flmul+2
  6061     0482  3000               	movlw	0
  6062     0483  00A7               	movwf	?___flmul+1
  6063     0484  3000               	movlw	0
  6064     0485  00A6               	movwf	?___flmul
  6065     0486  2F62               	goto	l851
  6066     0487                     l3314:
  6067     0487  0826               	movf	___flmul@b,w
  6068     0488  00F2               	movwf	__Umul8_16@multiplicand
  6069     0489  082C               	movf	___flmul@a+2,w
  6070     048A  160A  118A  2521  120A  118A  	fcall	__Umul8_16
  6071     048F  0873               	movf	?__Umul8_16+1,w
  6072     0490  1283               	bcf	3,5	;RP0=0, select bank0
  6073     0491  1303               	bcf	3,6	;RP1=0, select bank0
  6074     0492  00BF               	movwf	___flmul@temp+1
  6075     0493  0872               	movf	?__Umul8_16,w
  6076     0494  00BE               	movwf	___flmul@temp
  6077     0495                     l3316:
  6078     0495  083E               	movf	___flmul@temp,w
  6079     0496  00AE               	movwf	??___flmul
  6080     0497  01AF               	clrf	??___flmul+1
  6081     0498  01B0               	clrf	??___flmul+2
  6082     0499  01B1               	clrf	??___flmul+3
  6083     049A  0831               	movf	??___flmul+3,w
  6084     049B  00B8               	movwf	___flmul@grs+3
  6085     049C  0830               	movf	??___flmul+2,w
  6086     049D  00B7               	movwf	___flmul@grs+2
  6087     049E  082F               	movf	??___flmul+1,w
  6088     049F  00B6               	movwf	___flmul@grs+1
  6089     04A0  082E               	movf	??___flmul,w
  6090     04A1  00B5               	movwf	___flmul@grs
  6091     04A2                     l3318:
  6092     04A2  083F               	movf	___flmul@temp+1,w
  6093     04A3  00AE               	movwf	??___flmul
  6094     04A4  01AF               	clrf	??___flmul+1
  6095     04A5  01B0               	clrf	??___flmul+2
  6096     04A6  01B1               	clrf	??___flmul+3
  6097     04A7  0831               	movf	??___flmul+3,w
  6098     04A8  00BD               	movwf	___flmul@prod+3
  6099     04A9  0830               	movf	??___flmul+2,w
  6100     04AA  00BC               	movwf	___flmul@prod+2
  6101     04AB  082F               	movf	??___flmul+1,w
  6102     04AC  00BB               	movwf	___flmul@prod+1
  6103     04AD  082E               	movf	??___flmul,w
  6104     04AE  00BA               	movwf	___flmul@prod
  6105     04AF  0827               	movf	___flmul@b+1,w
  6106     04B0  00F2               	movwf	__Umul8_16@multiplicand
  6107     04B1  082B               	movf	___flmul@a+1,w
  6108     04B2  160A  118A  2521  120A  118A  	fcall	__Umul8_16
  6109     04B7  0873               	movf	?__Umul8_16+1,w
  6110     04B8  1283               	bcf	3,5	;RP0=0, select bank0
  6111     04B9  1303               	bcf	3,6	;RP1=0, select bank0
  6112     04BA  00BF               	movwf	___flmul@temp+1
  6113     04BB  0872               	movf	?__Umul8_16,w
  6114     04BC  00BE               	movwf	___flmul@temp
  6115     04BD                     l3320:
  6116     04BD  083E               	movf	___flmul@temp,w
  6117     04BE  00AE               	movwf	??___flmul
  6118     04BF  01AF               	clrf	??___flmul+1
  6119     04C0  01B0               	clrf	??___flmul+2
  6120     04C1  01B1               	clrf	??___flmul+3
  6121     04C2  082E               	movf	??___flmul,w
  6122     04C3  07B5               	addwf	___flmul@grs,f
  6123     04C4  082F               	movf	??___flmul+1,w
  6124     04C5  1103               	clrz
  6125     04C6  1803               	skipnc
  6126     04C7  3E01               	addlw	1
  6127     04C8  1903               	skipnz
  6128     04C9  2CCB               	goto	u4051
  6129     04CA  07B6               	addwf	___flmul@grs+1,f
  6130     04CB                     u4051:
  6131     04CB  0830               	movf	??___flmul+2,w
  6132     04CC  1103               	clrz
  6133     04CD  1803               	skipnc
  6134     04CE  3E01               	addlw	1
  6135     04CF  1903               	skipnz
  6136     04D0  2CD2               	goto	u4052
  6137     04D1  07B7               	addwf	___flmul@grs+2,f
  6138     04D2                     u4052:
  6139     04D2  0831               	movf	??___flmul+3,w
  6140     04D3  1103               	clrz
  6141     04D4  1803               	skipnc
  6142     04D5  3E01               	addlw	1
  6143     04D6  1903               	skipnz
  6144     04D7  2CD9               	goto	u4053
  6145     04D8  07B8               	addwf	___flmul@grs+3,f
  6146     04D9                     u4053:
  6147     04D9                     l3322:
  6148     04D9  083F               	movf	___flmul@temp+1,w
  6149     04DA  00AE               	movwf	??___flmul
  6150     04DB  01AF               	clrf	??___flmul+1
  6151     04DC  01B0               	clrf	??___flmul+2
  6152     04DD  01B1               	clrf	??___flmul+3
  6153     04DE  082E               	movf	??___flmul,w
  6154     04DF  07BA               	addwf	___flmul@prod,f
  6155     04E0  082F               	movf	??___flmul+1,w
  6156     04E1  1103               	clrz
  6157     04E2  1803               	skipnc
  6158     04E3  3E01               	addlw	1
  6159     04E4  1903               	skipnz
  6160     04E5  2CE7               	goto	u4061
  6161     04E6  07BB               	addwf	___flmul@prod+1,f
  6162     04E7                     u4061:
  6163     04E7  0830               	movf	??___flmul+2,w
  6164     04E8  1103               	clrz
  6165     04E9  1803               	skipnc
  6166     04EA  3E01               	addlw	1
  6167     04EB  1903               	skipnz
  6168     04EC  2CEE               	goto	u4062
  6169     04ED  07BC               	addwf	___flmul@prod+2,f
  6170     04EE                     u4062:
  6171     04EE  0831               	movf	??___flmul+3,w
  6172     04EF  1103               	clrz
  6173     04F0  1803               	skipnc
  6174     04F1  3E01               	addlw	1
  6175     04F2  1903               	skipnz
  6176     04F3  2CF5               	goto	u4063
  6177     04F4  07BD               	addwf	___flmul@prod+3,f
  6178     04F5                     u4063:
  6179     04F5  0828               	movf	___flmul@b+2,w
  6180     04F6  00F2               	movwf	__Umul8_16@multiplicand
  6181     04F7  082A               	movf	___flmul@a,w
  6182     04F8  160A  118A  2521  120A  118A  	fcall	__Umul8_16
  6183     04FD  0873               	movf	?__Umul8_16+1,w
  6184     04FE  1283               	bcf	3,5	;RP0=0, select bank0
  6185     04FF  1303               	bcf	3,6	;RP1=0, select bank0
  6186     0500  00BF               	movwf	___flmul@temp+1
  6187     0501  0872               	movf	?__Umul8_16,w
  6188     0502  00BE               	movwf	___flmul@temp
  6189     0503                     l3324:
  6190     0503  083E               	movf	___flmul@temp,w
  6191     0504  00AE               	movwf	??___flmul
  6192     0505  01AF               	clrf	??___flmul+1
  6193     0506  01B0               	clrf	??___flmul+2
  6194     0507  01B1               	clrf	??___flmul+3
  6195     0508  082E               	movf	??___flmul,w
  6196     0509  07B5               	addwf	___flmul@grs,f
  6197     050A  082F               	movf	??___flmul+1,w
  6198     050B  1103               	clrz
  6199     050C  1803               	skipnc
  6200     050D  3E01               	addlw	1
  6201     050E  1903               	skipnz
  6202     050F  2D11               	goto	u4071
  6203     0510  07B6               	addwf	___flmul@grs+1,f
  6204     0511                     u4071:
  6205     0511  0830               	movf	??___flmul+2,w
  6206     0512  1103               	clrz
  6207     0513  1803               	skipnc
  6208     0514  3E01               	addlw	1
  6209     0515  1903               	skipnz
  6210     0516  2D18               	goto	u4072
  6211     0517  07B7               	addwf	___flmul@grs+2,f
  6212     0518                     u4072:
  6213     0518  0831               	movf	??___flmul+3,w
  6214     0519  1103               	clrz
  6215     051A  1803               	skipnc
  6216     051B  3E01               	addlw	1
  6217     051C  1903               	skipnz
  6218     051D  2D1F               	goto	u4073
  6219     051E  07B8               	addwf	___flmul@grs+3,f
  6220     051F                     u4073:
  6221     051F                     l3326:
  6222     051F  083F               	movf	___flmul@temp+1,w
  6223     0520  00AE               	movwf	??___flmul
  6224     0521  01AF               	clrf	??___flmul+1
  6225     0522  01B0               	clrf	??___flmul+2
  6226     0523  01B1               	clrf	??___flmul+3
  6227     0524  082E               	movf	??___flmul,w
  6228     0525  07BA               	addwf	___flmul@prod,f
  6229     0526  082F               	movf	??___flmul+1,w
  6230     0527  1103               	clrz
  6231     0528  1803               	skipnc
  6232     0529  3E01               	addlw	1
  6233     052A  1903               	skipnz
  6234     052B  2D2D               	goto	u4081
  6235     052C  07BB               	addwf	___flmul@prod+1,f
  6236     052D                     u4081:
  6237     052D  0830               	movf	??___flmul+2,w
  6238     052E  1103               	clrz
  6239     052F  1803               	skipnc
  6240     0530  3E01               	addlw	1
  6241     0531  1903               	skipnz
  6242     0532  2D34               	goto	u4082
  6243     0533  07BC               	addwf	___flmul@prod+2,f
  6244     0534                     u4082:
  6245     0534  0831               	movf	??___flmul+3,w
  6246     0535  1103               	clrz
  6247     0536  1803               	skipnc
  6248     0537  3E01               	addlw	1
  6249     0538  1903               	skipnz
  6250     0539  2D3B               	goto	u4083
  6251     053A  07BD               	addwf	___flmul@prod+3,f
  6252     053B                     u4083:
  6253     053B                     l3328:
  6254     053B  3008               	movlw	8
  6255     053C  00AE               	movwf	??___flmul
  6256     053D                     u4095:
  6257     053D  1003               	clrc
  6258     053E  0DB5               	rlf	___flmul@grs,f
  6259     053F  0DB6               	rlf	___flmul@grs+1,f
  6260     0540  0DB7               	rlf	___flmul@grs+2,f
  6261     0541  0DB8               	rlf	___flmul@grs+3,f
  6262     0542  0BAE               	decfsz	??___flmul,f
  6263     0543  2D3D               	goto	u4095
  6264     0544                     l3330:
  6265     0544  0827               	movf	___flmul@b+1,w
  6266     0545  00F2               	movwf	__Umul8_16@multiplicand
  6267     0546  082A               	movf	___flmul@a,w
  6268     0547  160A  118A  2521  120A  118A  	fcall	__Umul8_16
  6269     054C  0873               	movf	?__Umul8_16+1,w
  6270     054D  1283               	bcf	3,5	;RP0=0, select bank0
  6271     054E  1303               	bcf	3,6	;RP1=0, select bank0
  6272     054F  00BF               	movwf	___flmul@temp+1
  6273     0550  0872               	movf	?__Umul8_16,w
  6274     0551  00BE               	movwf	___flmul@temp
  6275     0552                     l3332:
  6276     0552  083E               	movf	___flmul@temp,w
  6277     0553  00AE               	movwf	??___flmul
  6278     0554  083F               	movf	___flmul@temp+1,w
  6279     0555  00AF               	movwf	??___flmul+1
  6280     0556  01B0               	clrf	??___flmul+2
  6281     0557  01B1               	clrf	??___flmul+3
  6282     0558  082E               	movf	??___flmul,w
  6283     0559  07B5               	addwf	___flmul@grs,f
  6284     055A  082F               	movf	??___flmul+1,w
  6285     055B  1103               	clrz
  6286     055C  1803               	skipnc
  6287     055D  3E01               	addlw	1
  6288     055E  1903               	skipnz
  6289     055F  2D61               	goto	u4101
  6290     0560  07B6               	addwf	___flmul@grs+1,f
  6291     0561                     u4101:
  6292     0561  0830               	movf	??___flmul+2,w
  6293     0562  1103               	clrz
  6294     0563  1803               	skipnc
  6295     0564  3E01               	addlw	1
  6296     0565  1903               	skipnz
  6297     0566  2D68               	goto	u4102
  6298     0567  07B7               	addwf	___flmul@grs+2,f
  6299     0568                     u4102:
  6300     0568  0831               	movf	??___flmul+3,w
  6301     0569  1103               	clrz
  6302     056A  1803               	skipnc
  6303     056B  3E01               	addlw	1
  6304     056C  1903               	skipnz
  6305     056D  2D6F               	goto	u4103
  6306     056E  07B8               	addwf	___flmul@grs+3,f
  6307     056F                     u4103:
  6308     056F                     l3334:
  6309     056F  0826               	movf	___flmul@b,w
  6310     0570  00F2               	movwf	__Umul8_16@multiplicand
  6311     0571  082B               	movf	___flmul@a+1,w
  6312     0572  160A  118A  2521  120A  118A  	fcall	__Umul8_16
  6313     0577  0873               	movf	?__Umul8_16+1,w
  6314     0578  1283               	bcf	3,5	;RP0=0, select bank0
  6315     0579  1303               	bcf	3,6	;RP1=0, select bank0
  6316     057A  00BF               	movwf	___flmul@temp+1
  6317     057B  0872               	movf	?__Umul8_16,w
  6318     057C  00BE               	movwf	___flmul@temp
  6319     057D                     l3336:
  6320     057D  083E               	movf	___flmul@temp,w
  6321     057E  00AE               	movwf	??___flmul
  6322     057F  083F               	movf	___flmul@temp+1,w
  6323     0580  00AF               	movwf	??___flmul+1
  6324     0581  01B0               	clrf	??___flmul+2
  6325     0582  01B1               	clrf	??___flmul+3
  6326     0583  082E               	movf	??___flmul,w
  6327     0584  07B5               	addwf	___flmul@grs,f
  6328     0585  082F               	movf	??___flmul+1,w
  6329     0586  1103               	clrz
  6330     0587  1803               	skipnc
  6331     0588  3E01               	addlw	1
  6332     0589  1903               	skipnz
  6333     058A  2D8C               	goto	u4111
  6334     058B  07B6               	addwf	___flmul@grs+1,f
  6335     058C                     u4111:
  6336     058C  0830               	movf	??___flmul+2,w
  6337     058D  1103               	clrz
  6338     058E  1803               	skipnc
  6339     058F  3E01               	addlw	1
  6340     0590  1903               	skipnz
  6341     0591  2D93               	goto	u4112
  6342     0592  07B7               	addwf	___flmul@grs+2,f
  6343     0593                     u4112:
  6344     0593  0831               	movf	??___flmul+3,w
  6345     0594  1103               	clrz
  6346     0595  1803               	skipnc
  6347     0596  3E01               	addlw	1
  6348     0597  1903               	skipnz
  6349     0598  2D9A               	goto	u4113
  6350     0599  07B8               	addwf	___flmul@grs+3,f
  6351     059A                     u4113:
  6352     059A                     l3338:
  6353     059A  3008               	movlw	8
  6354     059B  00AE               	movwf	??___flmul
  6355     059C                     u4125:
  6356     059C  1003               	clrc
  6357     059D  0DB5               	rlf	___flmul@grs,f
  6358     059E  0DB6               	rlf	___flmul@grs+1,f
  6359     059F  0DB7               	rlf	___flmul@grs+2,f
  6360     05A0  0DB8               	rlf	___flmul@grs+3,f
  6361     05A1  0BAE               	decfsz	??___flmul,f
  6362     05A2  2D9C               	goto	u4125
  6363     05A3  0826               	movf	___flmul@b,w
  6364     05A4  00F2               	movwf	__Umul8_16@multiplicand
  6365     05A5  082A               	movf	___flmul@a,w
  6366     05A6  160A  118A  2521  120A  118A  	fcall	__Umul8_16
  6367     05AB  0873               	movf	?__Umul8_16+1,w
  6368     05AC  1283               	bcf	3,5	;RP0=0, select bank0
  6369     05AD  1303               	bcf	3,6	;RP1=0, select bank0
  6370     05AE  00BF               	movwf	___flmul@temp+1
  6371     05AF  0872               	movf	?__Umul8_16,w
  6372     05B0  00BE               	movwf	___flmul@temp
  6373     05B1                     l3340:
  6374     05B1  083E               	movf	___flmul@temp,w
  6375     05B2  00AE               	movwf	??___flmul
  6376     05B3  083F               	movf	___flmul@temp+1,w
  6377     05B4  00AF               	movwf	??___flmul+1
  6378     05B5  01B0               	clrf	??___flmul+2
  6379     05B6  01B1               	clrf	??___flmul+3
  6380     05B7  082E               	movf	??___flmul,w
  6381     05B8  07B5               	addwf	___flmul@grs,f
  6382     05B9  082F               	movf	??___flmul+1,w
  6383     05BA  1103               	clrz
  6384     05BB  1803               	skipnc
  6385     05BC  3E01               	addlw	1
  6386     05BD  1903               	skipnz
  6387     05BE  2DC0               	goto	u4131
  6388     05BF  07B6               	addwf	___flmul@grs+1,f
  6389     05C0                     u4131:
  6390     05C0  0830               	movf	??___flmul+2,w
  6391     05C1  1103               	clrz
  6392     05C2  1803               	skipnc
  6393     05C3  3E01               	addlw	1
  6394     05C4  1903               	skipnz
  6395     05C5  2DC7               	goto	u4132
  6396     05C6  07B7               	addwf	___flmul@grs+2,f
  6397     05C7                     u4132:
  6398     05C7  0831               	movf	??___flmul+3,w
  6399     05C8  1103               	clrz
  6400     05C9  1803               	skipnc
  6401     05CA  3E01               	addlw	1
  6402     05CB  1903               	skipnz
  6403     05CC  2DCE               	goto	u4133
  6404     05CD  07B8               	addwf	___flmul@grs+3,f
  6405     05CE                     u4133:
  6406     05CE                     l3342:
  6407     05CE  0827               	movf	___flmul@b+1,w
  6408     05CF  00F2               	movwf	__Umul8_16@multiplicand
  6409     05D0  082C               	movf	___flmul@a+2,w
  6410     05D1  160A  118A  2521  120A  118A  	fcall	__Umul8_16
  6411     05D6  0873               	movf	?__Umul8_16+1,w
  6412     05D7  1283               	bcf	3,5	;RP0=0, select bank0
  6413     05D8  1303               	bcf	3,6	;RP1=0, select bank0
  6414     05D9  00BF               	movwf	___flmul@temp+1
  6415     05DA  0872               	movf	?__Umul8_16,w
  6416     05DB  00BE               	movwf	___flmul@temp
  6417     05DC  083E               	movf	___flmul@temp,w
  6418     05DD  00AE               	movwf	??___flmul
  6419     05DE  083F               	movf	___flmul@temp+1,w
  6420     05DF  00AF               	movwf	??___flmul+1
  6421     05E0  01B0               	clrf	??___flmul+2
  6422     05E1  01B1               	clrf	??___flmul+3
  6423     05E2  082E               	movf	??___flmul,w
  6424     05E3  07BA               	addwf	___flmul@prod,f
  6425     05E4  082F               	movf	??___flmul+1,w
  6426     05E5  1103               	clrz
  6427     05E6  1803               	skipnc
  6428     05E7  3E01               	addlw	1
  6429     05E8  1903               	skipnz
  6430     05E9  2DEB               	goto	u4141
  6431     05EA  07BB               	addwf	___flmul@prod+1,f
  6432     05EB                     u4141:
  6433     05EB  0830               	movf	??___flmul+2,w
  6434     05EC  1103               	clrz
  6435     05ED  1803               	skipnc
  6436     05EE  3E01               	addlw	1
  6437     05EF  1903               	skipnz
  6438     05F0  2DF2               	goto	u4142
  6439     05F1  07BC               	addwf	___flmul@prod+2,f
  6440     05F2                     u4142:
  6441     05F2  0831               	movf	??___flmul+3,w
  6442     05F3  1103               	clrz
  6443     05F4  1803               	skipnc
  6444     05F5  3E01               	addlw	1
  6445     05F6  1903               	skipnz
  6446     05F7  2DF9               	goto	u4143
  6447     05F8  07BD               	addwf	___flmul@prod+3,f
  6448     05F9                     u4143:
  6449     05F9                     l3344:
  6450     05F9  0828               	movf	___flmul@b+2,w
  6451     05FA  00F2               	movwf	__Umul8_16@multiplicand
  6452     05FB  082B               	movf	___flmul@a+1,w
  6453     05FC  160A  118A  2521  120A  118A  	fcall	__Umul8_16
  6454     0601  0873               	movf	?__Umul8_16+1,w
  6455     0602  1283               	bcf	3,5	;RP0=0, select bank0
  6456     0603  1303               	bcf	3,6	;RP1=0, select bank0
  6457     0604  00BF               	movwf	___flmul@temp+1
  6458     0605  0872               	movf	?__Umul8_16,w
  6459     0606  00BE               	movwf	___flmul@temp
  6460     0607                     l3346:
  6461     0607  083E               	movf	___flmul@temp,w
  6462     0608  00AE               	movwf	??___flmul
  6463     0609  083F               	movf	___flmul@temp+1,w
  6464     060A  00AF               	movwf	??___flmul+1
  6465     060B  01B0               	clrf	??___flmul+2
  6466     060C  01B1               	clrf	??___flmul+3
  6467     060D  082E               	movf	??___flmul,w
  6468     060E  07BA               	addwf	___flmul@prod,f
  6469     060F  082F               	movf	??___flmul+1,w
  6470     0610  1103               	clrz
  6471     0611  1803               	skipnc
  6472     0612  3E01               	addlw	1
  6473     0613  1903               	skipnz
  6474     0614  2E16               	goto	u4151
  6475     0615  07BB               	addwf	___flmul@prod+1,f
  6476     0616                     u4151:
  6477     0616  0830               	movf	??___flmul+2,w
  6478     0617  1103               	clrz
  6479     0618  1803               	skipnc
  6480     0619  3E01               	addlw	1
  6481     061A  1903               	skipnz
  6482     061B  2E1D               	goto	u4152
  6483     061C  07BC               	addwf	___flmul@prod+2,f
  6484     061D                     u4152:
  6485     061D  0831               	movf	??___flmul+3,w
  6486     061E  1103               	clrz
  6487     061F  1803               	skipnc
  6488     0620  3E01               	addlw	1
  6489     0621  1903               	skipnz
  6490     0622  2E24               	goto	u4153
  6491     0623  07BD               	addwf	___flmul@prod+3,f
  6492     0624                     u4153:
  6493     0624  0828               	movf	___flmul@b+2,w
  6494     0625  00F2               	movwf	__Umul8_16@multiplicand
  6495     0626  082C               	movf	___flmul@a+2,w
  6496     0627  160A  118A  2521  120A  118A  	fcall	__Umul8_16
  6497     062C  0873               	movf	?__Umul8_16+1,w
  6498     062D  1283               	bcf	3,5	;RP0=0, select bank0
  6499     062E  1303               	bcf	3,6	;RP1=0, select bank0
  6500     062F  00BF               	movwf	___flmul@temp+1
  6501     0630  0872               	movf	?__Umul8_16,w
  6502     0631  00BE               	movwf	___flmul@temp
  6503     0632                     l3348:
  6504     0632  083E               	movf	___flmul@temp,w
  6505     0633  00AE               	movwf	??___flmul
  6506     0634  083F               	movf	___flmul@temp+1,w
  6507     0635  00AF               	movwf	??___flmul+1
  6508     0636  01B0               	clrf	??___flmul+2
  6509     0637  01B1               	clrf	??___flmul+3
  6510     0638  3008               	movlw	8
  6511     0639                     u4165:
  6512     0639  1003               	clrc
  6513     063A  0DAE               	rlf	??___flmul,f
  6514     063B  0DAF               	rlf	??___flmul+1,f
  6515     063C  0DB0               	rlf	??___flmul+2,f
  6516     063D  0DB1               	rlf	??___flmul+3,f
  6517     063E                     u4160:
  6518     063E  3EFF               	addlw	-1
  6519     063F  1D03               	skipz
  6520     0640  2E39               	goto	u4165
  6521     0641  082E               	movf	??___flmul,w
  6522     0642  07BA               	addwf	___flmul@prod,f
  6523     0643  082F               	movf	??___flmul+1,w
  6524     0644  1103               	clrz
  6525     0645  1803               	skipnc
  6526     0646  3E01               	addlw	1
  6527     0647  1903               	skipnz
  6528     0648  2E4A               	goto	u4171
  6529     0649  07BB               	addwf	___flmul@prod+1,f
  6530     064A                     u4171:
  6531     064A  0830               	movf	??___flmul+2,w
  6532     064B  1103               	clrz
  6533     064C  1803               	skipnc
  6534     064D  3E01               	addlw	1
  6535     064E  1903               	skipnz
  6536     064F  2E51               	goto	u4172
  6537     0650  07BC               	addwf	___flmul@prod+2,f
  6538     0651                     u4172:
  6539     0651  0831               	movf	??___flmul+3,w
  6540     0652  1103               	clrz
  6541     0653  1803               	skipnc
  6542     0654  3E01               	addlw	1
  6543     0655  1903               	skipnz
  6544     0656  2E58               	goto	u4173
  6545     0657  07BD               	addwf	___flmul@prod+3,f
  6546     0658                     u4173:
  6547     0658                     l3350:
  6548     0658  0835               	movf	___flmul@grs,w
  6549     0659  00AE               	movwf	??___flmul
  6550     065A  0836               	movf	___flmul@grs+1,w
  6551     065B  00AF               	movwf	??___flmul+1
  6552     065C  0837               	movf	___flmul@grs+2,w
  6553     065D  00B0               	movwf	??___flmul+2
  6554     065E  0838               	movf	___flmul@grs+3,w
  6555     065F  00B1               	movwf	??___flmul+3
  6556     0660  3018               	movlw	24
  6557     0661                     u4185:
  6558     0661  1003               	clrc
  6559     0662  0CB1               	rrf	??___flmul+3,f
  6560     0663  0CB0               	rrf	??___flmul+2,f
  6561     0664  0CAF               	rrf	??___flmul+1,f
  6562     0665  0CAE               	rrf	??___flmul,f
  6563     0666                     u4180:
  6564     0666  3EFF               	addlw	-1
  6565     0667  1D03               	skipz
  6566     0668  2E61               	goto	u4185
  6567     0669  082E               	movf	??___flmul,w
  6568     066A  07BA               	addwf	___flmul@prod,f
  6569     066B  082F               	movf	??___flmul+1,w
  6570     066C  1103               	clrz
  6571     066D  1803               	skipnc
  6572     066E  3E01               	addlw	1
  6573     066F  1903               	skipnz
  6574     0670  2E72               	goto	u4191
  6575     0671  07BB               	addwf	___flmul@prod+1,f
  6576     0672                     u4191:
  6577     0672  0830               	movf	??___flmul+2,w
  6578     0673  1103               	clrz
  6579     0674  1803               	skipnc
  6580     0675  3E01               	addlw	1
  6581     0676  1903               	skipnz
  6582     0677  2E79               	goto	u4192
  6583     0678  07BC               	addwf	___flmul@prod+2,f
  6584     0679                     u4192:
  6585     0679  0831               	movf	??___flmul+3,w
  6586     067A  1103               	clrz
  6587     067B  1803               	skipnc
  6588     067C  3E01               	addlw	1
  6589     067D  1903               	skipnz
  6590     067E  2E80               	goto	u4193
  6591     067F  07BD               	addwf	___flmul@prod+3,f
  6592     0680                     u4193:
  6593     0680                     l3352:
  6594     0680  3008               	movlw	8
  6595     0681  00AE               	movwf	??___flmul
  6596     0682                     u4205:
  6597     0682  1003               	clrc
  6598     0683  0DB5               	rlf	___flmul@grs,f
  6599     0684  0DB6               	rlf	___flmul@grs+1,f
  6600     0685  0DB7               	rlf	___flmul@grs+2,f
  6601     0686  0DB8               	rlf	___flmul@grs+3,f
  6602     0687  0BAE               	decfsz	??___flmul,f
  6603     0688  2E82               	goto	u4205
  6604     0689                     l3354:
  6605     0689  0839               	movf	___flmul@bexp,w
  6606     068A  0734               	addwf	___flmul@aexp,w
  6607     068B  00AE               	movwf	??___flmul
  6608     068C  01AF               	clrf	??___flmul+1
  6609     068D  0DAF               	rlf	??___flmul+1,f
  6610     068E  082E               	movf	??___flmul,w
  6611     068F  3E82               	addlw	130
  6612     0690  00BE               	movwf	___flmul@temp
  6613     0691  082F               	movf	??___flmul+1,w
  6614     0692  1803               	skipnc
  6615     0693  3E01               	addlw	1
  6616     0694  3EFF               	addlw	255
  6617     0695  00BF               	movwf	___flmul@temp+1
  6618     0696  2EB4               	goto	l3366
  6619     0697                     l3356:
  6620     0697  3001               	movlw	1
  6621     0698  00AE               	movwf	??___flmul
  6622     0699                     u4215:
  6623     0699  1003               	clrc
  6624     069A  0DBA               	rlf	___flmul@prod,f
  6625     069B  0DBB               	rlf	___flmul@prod+1,f
  6626     069C  0DBC               	rlf	___flmul@prod+2,f
  6627     069D  0DBD               	rlf	___flmul@prod+3,f
  6628     069E  0BAE               	decfsz	??___flmul,f
  6629     069F  2E99               	goto	u4215
  6630     06A0                     l3358:
  6631     06A0  1FB8               	btfss	___flmul@grs+3,7
  6632     06A1  2EA3               	goto	u4221
  6633     06A2  2EA4               	goto	u4220
  6634     06A3                     u4221:
  6635     06A3  2EA5               	goto	l3362
  6636     06A4                     u4220:
  6637     06A4                     l3360:
  6638     06A4  143A               	bsf	___flmul@prod,0
  6639     06A5                     l3362:
  6640     06A5  3001               	movlw	1
  6641     06A6  00AE               	movwf	??___flmul
  6642     06A7                     u4235:
  6643     06A7  1003               	clrc
  6644     06A8  0DB5               	rlf	___flmul@grs,f
  6645     06A9  0DB6               	rlf	___flmul@grs+1,f
  6646     06AA  0DB7               	rlf	___flmul@grs+2,f
  6647     06AB  0DB8               	rlf	___flmul@grs+3,f
  6648     06AC  0BAE               	decfsz	??___flmul,f
  6649     06AD  2EA7               	goto	u4235
  6650     06AE                     l3364:
  6651     06AE  30FF               	movlw	255
  6652     06AF  07BE               	addwf	___flmul@temp,f
  6653     06B0  1803               	skipnc
  6654     06B1  0ABF               	incf	___flmul@temp+1,f
  6655     06B2  30FF               	movlw	255
  6656     06B3  07BF               	addwf	___flmul@temp+1,f
  6657     06B4                     l3366:
  6658     06B4  1FBC               	btfss	___flmul@prod+2,7
  6659     06B5  2EB7               	goto	u4241
  6660     06B6  2EB8               	goto	u4240
  6661     06B7                     u4241:
  6662     06B7  2E97               	goto	l3356
  6663     06B8                     u4240:
  6664     06B8                     l3368:
  6665     06B8  01B4               	clrf	___flmul@aexp
  6666     06B9                     l3370:
  6667     06B9  1FB8               	btfss	___flmul@grs+3,7
  6668     06BA  2EBC               	goto	u4251
  6669     06BB  2EBD               	goto	u4250
  6670     06BC                     u4251:
  6671     06BC  2ED9               	goto	l3378
  6672     06BD                     u4250:
  6673     06BD                     l3372:
  6674     06BD  30FF               	movlw	255
  6675     06BE  0535               	andwf	___flmul@grs,w
  6676     06BF  00AE               	movwf	??___flmul
  6677     06C0  30FF               	movlw	255
  6678     06C1  0536               	andwf	___flmul@grs+1,w
  6679     06C2  00AF               	movwf	??___flmul+1
  6680     06C3  30FF               	movlw	255
  6681     06C4  0537               	andwf	___flmul@grs+2,w
  6682     06C5  00B0               	movwf	??___flmul+2
  6683     06C6  307F               	movlw	127
  6684     06C7  0538               	andwf	___flmul@grs+3,w
  6685     06C8  00B1               	movwf	??___flmul+3
  6686     06C9  0831               	movf	??___flmul+3,w
  6687     06CA  0430               	iorwf	??___flmul+2,w
  6688     06CB  042F               	iorwf	??___flmul+1,w
  6689     06CC  042E               	iorwf	??___flmul,w
  6690     06CD  1903               	skipnz
  6691     06CE  2ED0               	goto	u4261
  6692     06CF  2ED1               	goto	u4260
  6693     06D0                     u4261:
  6694     06D0  2ED4               	goto	l857
  6695     06D1                     u4260:
  6696     06D1                     l3374:
  6697     06D1  3001               	movlw	1
  6698     06D2  00B4               	movwf	___flmul@aexp
  6699     06D3  2ED9               	goto	l3378
  6700     06D4                     l857:
  6701     06D4  1C3A               	btfss	___flmul@prod,0
  6702     06D5  2ED7               	goto	u4271
  6703     06D6  2ED8               	goto	u4270
  6704     06D7                     u4271:
  6705     06D7  2ED9               	goto	l3378
  6706     06D8                     u4270:
  6707     06D8  2ED1               	goto	l3374
  6708     06D9                     l3378:
  6709     06D9  0834               	movf	___flmul@aexp,w
  6710     06DA  1903               	btfsc	3,2
  6711     06DB  2EDD               	goto	u4281
  6712     06DC  2EDE               	goto	u4280
  6713     06DD                     u4281:
  6714     06DD  2F0F               	goto	l3388
  6715     06DE                     u4280:
  6716     06DE                     l3380:
  6717     06DE  3001               	movlw	1
  6718     06DF  07BA               	addwf	___flmul@prod,f
  6719     06E0  3000               	movlw	0
  6720     06E1  1803               	skipnc
  6721     06E2  3001               	movlw	1
  6722     06E3  07BB               	addwf	___flmul@prod+1,f
  6723     06E4  3000               	movlw	0
  6724     06E5  1803               	skipnc
  6725     06E6  3001               	movlw	1
  6726     06E7  07BC               	addwf	___flmul@prod+2,f
  6727     06E8  3000               	movlw	0
  6728     06E9  1803               	skipnc
  6729     06EA  3001               	movlw	1
  6730     06EB  07BD               	addwf	___flmul@prod+3,f
  6731     06EC                     l3382:
  6732     06EC  1C3D               	btfss	___flmul@prod+3,0
  6733     06ED  2EEF               	goto	u4291
  6734     06EE  2EF0               	goto	u4290
  6735     06EF                     u4291:
  6736     06EF  2F0F               	goto	l3388
  6737     06F0                     u4290:
  6738     06F0                     l3384:
  6739     06F0  083A               	movf	___flmul@prod,w
  6740     06F1  00AE               	movwf	??___flmul
  6741     06F2  083B               	movf	___flmul@prod+1,w
  6742     06F3  00AF               	movwf	??___flmul+1
  6743     06F4  083C               	movf	___flmul@prod+2,w
  6744     06F5  00B0               	movwf	??___flmul+2
  6745     06F6  083D               	movf	___flmul@prod+3,w
  6746     06F7  00B1               	movwf	??___flmul+3
  6747     06F8  3001               	movlw	1
  6748     06F9  00B2               	movwf	??___flmul+4
  6749     06FA                     u4305:
  6750     06FA  0D31               	rlf	??___flmul+3,w
  6751     06FB  0CB1               	rrf	??___flmul+3,f
  6752     06FC  0CB0               	rrf	??___flmul+2,f
  6753     06FD  0CAF               	rrf	??___flmul+1,f
  6754     06FE  0CAE               	rrf	??___flmul,f
  6755     06FF                     u4300:
  6756     06FF  0BB2               	decfsz	??___flmul+4,f
  6757     0700  2EFA               	goto	u4305
  6758     0701  0831               	movf	??___flmul+3,w
  6759     0702  00BD               	movwf	___flmul@prod+3
  6760     0703  0830               	movf	??___flmul+2,w
  6761     0704  00BC               	movwf	___flmul@prod+2
  6762     0705  082F               	movf	??___flmul+1,w
  6763     0706  00BB               	movwf	___flmul@prod+1
  6764     0707  082E               	movf	??___flmul,w
  6765     0708  00BA               	movwf	___flmul@prod
  6766     0709                     l3386:
  6767     0709  3001               	movlw	1
  6768     070A  07BE               	addwf	___flmul@temp,f
  6769     070B  1803               	skipnc
  6770     070C  0ABF               	incf	___flmul@temp+1,f
  6771     070D  3000               	movlw	0
  6772     070E  07BF               	addwf	___flmul@temp+1,f
  6773     070F                     l3388:
  6774     070F  083F               	movf	___flmul@temp+1,w
  6775     0710  3A80               	xorlw	128
  6776     0711  00FF               	movwf	btemp+1
  6777     0712  3080               	movlw	128
  6778     0713  027F               	subwf	btemp+1,w
  6779     0714  1D03               	skipz
  6780     0715  2F18               	goto	u4315
  6781     0716  30FF               	movlw	255
  6782     0717  023E               	subwf	___flmul@temp,w
  6783     0718                     u4315:
  6784     0718  1C03               	skipc
  6785     0719  2F1B               	goto	u4311
  6786     071A  2F1C               	goto	u4310
  6787     071B                     u4311:
  6788     071B  2F27               	goto	l3392
  6789     071C                     u4310:
  6790     071C                     l3390:
  6791     071C  307F               	movlw	127
  6792     071D  1283               	bcf	3,5	;RP0=0, select bank0
  6793     071E  1303               	bcf	3,6	;RP1=0, select bank0
  6794     071F  00BD               	movwf	___flmul@prod+3
  6795     0720  3080               	movlw	128
  6796     0721  00BC               	movwf	___flmul@prod+2
  6797     0722  3000               	movlw	0
  6798     0723  00BB               	movwf	___flmul@prod+1
  6799     0724  3000               	movlw	0
  6800     0725  00BA               	movwf	___flmul@prod
  6801     0726  2F58               	goto	l863
  6802     0727                     l3392:
  6803     0727  1283               	bcf	3,5	;RP0=0, select bank0
  6804     0728  1303               	bcf	3,6	;RP1=0, select bank0
  6805     0729  083F               	movf	___flmul@temp+1,w
  6806     072A  3A80               	xorlw	128
  6807     072B  00FF               	movwf	btemp+1
  6808     072C  3080               	movlw	128
  6809     072D  027F               	subwf	btemp+1,w
  6810     072E  1D03               	skipz
  6811     072F  2F32               	goto	u4325
  6812     0730  3001               	movlw	1
  6813     0731  023E               	subwf	___flmul@temp,w
  6814     0732                     u4325:
  6815     0732  1803               	skipnc
  6816     0733  2F35               	goto	u4321
  6817     0734  2F36               	goto	u4320
  6818     0735                     u4321:
  6819     0735  2F42               	goto	l3398
  6820     0736                     u4320:
  6821     0736                     l3394:
  6822     0736  3000               	movlw	0
  6823     0737  1283               	bcf	3,5	;RP0=0, select bank0
  6824     0738  1303               	bcf	3,6	;RP1=0, select bank0
  6825     0739  00BD               	movwf	___flmul@prod+3
  6826     073A  3000               	movlw	0
  6827     073B  00BC               	movwf	___flmul@prod+2
  6828     073C  3000               	movlw	0
  6829     073D  00BB               	movwf	___flmul@prod+1
  6830     073E  3000               	movlw	0
  6831     073F  00BA               	movwf	___flmul@prod
  6832     0740                     l3396:
  6833     0740  01B3               	clrf	___flmul@sign
  6834     0741  2F58               	goto	l863
  6835     0742                     l3398:
  6836     0742  1283               	bcf	3,5	;RP0=0, select bank0
  6837     0743  1303               	bcf	3,6	;RP1=0, select bank0
  6838     0744  083E               	movf	___flmul@temp,w
  6839     0745  00B9               	movwf	___flmul@bexp
  6840     0746  30FF               	movlw	255
  6841     0747  05BA               	andwf	___flmul@prod,f
  6842     0748  30FF               	movlw	255
  6843     0749  05BB               	andwf	___flmul@prod+1,f
  6844     074A  307F               	movlw	127
  6845     074B  05BC               	andwf	___flmul@prod+2,f
  6846     074C  3000               	movlw	0
  6847     074D  05BD               	andwf	___flmul@prod+3,f
  6848     074E                     l3400:
  6849     074E  1C39               	btfss	___flmul@bexp,0
  6850     074F  2F51               	goto	u4331
  6851     0750  2F52               	goto	u4330
  6852     0751                     u4331:
  6853     0751  2F53               	goto	l3404
  6854     0752                     u4330:
  6855     0752                     l3402:
  6856     0752  17BC               	bsf	___flmul@prod+2,7
  6857     0753                     l3404:
  6858     0753  0839               	movf	___flmul@bexp,w
  6859     0754  00AE               	movwf	??___flmul
  6860     0755  1003               	clrc
  6861     0756  0C2E               	rrf	??___flmul,w
  6862     0757  00BD               	movwf	___flmul@prod+3
  6863     0758                     l863:
  6864     0758  0833               	movf	___flmul@sign,w
  6865     0759  04BD               	iorwf	___flmul@prod+3,f
  6866     075A                     l3406:
  6867     075A  083D               	movf	___flmul@prod+3,w
  6868     075B  00A9               	movwf	?___flmul+3
  6869     075C  083C               	movf	___flmul@prod+2,w
  6870     075D  00A8               	movwf	?___flmul+2
  6871     075E  083B               	movf	___flmul@prod+1,w
  6872     075F  00A7               	movwf	?___flmul+1
  6873     0760  083A               	movf	___flmul@prod,w
  6874     0761  00A6               	movwf	?___flmul
  6875     0762                     l851:
  6876     0762  0008               	return
  6877     0763                     __end_of___flmul:
  6878                           
  6879                           	psect	text12
  6880     1521                     __ptext12:	
  6881 ;; *************** function __Umul8_16 *****************
  6882 ;; Defined at:
  6883 ;;		line 4 in file "D:\Aarav study\pic\sources\c99\common\Umul8_16.c"
  6884 ;; Parameters:    Size  Location     Type
  6885 ;;  multiplier      1    wreg     unsigned char 
  6886 ;;  multiplicand    1    2[COMMON] unsigned char 
  6887 ;; Auto vars:     Size  Location     Type
  6888 ;;  multiplier      1    4[BANK0 ] unsigned char 
  6889 ;;  word_mpld       2    2[BANK0 ] unsigned short 
  6890 ;;  product         2    0[BANK0 ] unsigned short 
  6891 ;; Return value:  Size  Location     Type
  6892 ;;                  2    2[COMMON] unsigned int 
  6893 ;; Registers used:
  6894 ;;		wreg, status,2, status,0
  6895 ;; Tracked objects:
  6896 ;;		On entry : 0/0
  6897 ;;		On exit  : 0/0
  6898 ;;		Unchanged: 0/0
  6899 ;; Data sizes:     COMMON   BANK0   BANK1   BANK3   BANK2
  6900 ;;      Params:         2       0       0       0       0
  6901 ;;      Locals:         0       5       0       0       0
  6902 ;;      Temps:          2       0       0       0       0
  6903 ;;      Totals:         4       5       0       0       0
  6904 ;;Total ram usage:        9 bytes
  6905 ;; Hardware stack levels used: 1
  6906 ;; Hardware stack levels required when called: 1
  6907 ;; This function calls:
  6908 ;;		Nothing
  6909 ;; This function is called by:
  6910 ;;		___flmul
  6911 ;; This function uses a non-reentrant model
  6912 ;;
  6913                           
  6914     1521                     __Umul8_16:	
  6915                           ;psect for function __Umul8_16
  6916                           
  6917                           
  6918                           ;incstack = 0
  6919                           ; Regs used in __Umul8_16: [wreg+status,2+status,0]
  6920                           ;__Umul8_16@multiplier stored from wreg
  6921     1521  1283               	bcf	3,5	;RP0=0, select bank0
  6922     1522  1303               	bcf	3,6	;RP1=0, select bank0
  6923     1523  00A4               	movwf	__Umul8_16@multiplier
  6924     1524                     l3224:
  6925     1524  01A0               	clrf	__Umul8_16@product
  6926     1525  01A1               	clrf	__Umul8_16@product+1
  6927     1526                     l3226:
  6928     1526  0872               	movf	__Umul8_16@multiplicand,w
  6929     1527  00F4               	movwf	??__Umul8_16
  6930     1528  01F5               	clrf	??__Umul8_16+1
  6931     1529  0874               	movf	??__Umul8_16,w
  6932     152A  00A2               	movwf	__Umul8_16@word_mpld
  6933     152B  0875               	movf	??__Umul8_16+1,w
  6934     152C  00A3               	movwf	__Umul8_16@word_mpld+1
  6935     152D                     l3228:
  6936     152D  1C24               	btfss	__Umul8_16@multiplier,0
  6937     152E  2D30               	goto	u3921
  6938     152F  2D31               	goto	u3920
  6939     1530                     u3921:
  6940     1530  2D37               	goto	l870
  6941     1531                     u3920:
  6942     1531                     l3230:
  6943     1531  0822               	movf	__Umul8_16@word_mpld,w
  6944     1532  07A0               	addwf	__Umul8_16@product,f
  6945     1533  1803               	skipnc
  6946     1534  0AA1               	incf	__Umul8_16@product+1,f
  6947     1535  0823               	movf	__Umul8_16@word_mpld+1,w
  6948     1536  07A1               	addwf	__Umul8_16@product+1,f
  6949     1537                     l870:
  6950     1537  3001               	movlw	1
  6951     1538                     u3935:
  6952     1538  1003               	clrc
  6953     1539  0DA2               	rlf	__Umul8_16@word_mpld,f
  6954     153A  0DA3               	rlf	__Umul8_16@word_mpld+1,f
  6955     153B  3EFF               	addlw	-1
  6956     153C  1D03               	skipz
  6957     153D  2D38               	goto	u3935
  6958     153E  1003               	clrc
  6959     153F  0CA4               	rrf	__Umul8_16@multiplier,f
  6960     1540                     l3232:
  6961     1540  0824               	movf	__Umul8_16@multiplier,w
  6962     1541  1D03               	btfss	3,2
  6963     1542  2D44               	goto	u3941
  6964     1543  2D45               	goto	u3940
  6965     1544                     u3941:
  6966     1544  2D2D               	goto	l3228
  6967     1545                     u3940:
  6968     1545                     l3234:
  6969     1545  0821               	movf	__Umul8_16@product+1,w
  6970     1546  00F3               	movwf	?__Umul8_16+1
  6971     1547  0820               	movf	__Umul8_16@product,w
  6972     1548  00F2               	movwf	?__Umul8_16
  6973     1549                     l872:
  6974     1549  0008               	return
  6975     154A                     __end_of__Umul8_16:
  6976                           
  6977                           	psect	text13
  6978     0822                     __ptext13:	
  6979 ;; *************** function ___flge *****************
  6980 ;; Defined at:
  6981 ;;		line 4 in file "D:\Aarav study\pic\sources\c99\common\flge.c"
  6982 ;; Parameters:    Size  Location     Type
  6983 ;;  ff1             4   40[BANK0 ] unsigned int 
  6984 ;;  ff2             4   44[BANK0 ] unsigned int 
  6985 ;; Auto vars:     Size  Location     Type
  6986 ;;		None
  6987 ;; Return value:  Size  Location     Type
  6988 ;;		None               void
  6989 ;; Registers used:
  6990 ;;		wreg, status,2, status,0
  6991 ;; Tracked objects:
  6992 ;;		On entry : 0/0
  6993 ;;		On exit  : 0/0
  6994 ;;		Unchanged: 0/0
  6995 ;; Data sizes:     COMMON   BANK0   BANK1   BANK3   BANK2
  6996 ;;      Params:         0       8       0       0       0
  6997 ;;      Locals:         0       0       0       0       0
  6998 ;;      Temps:          0       4       0       0       0
  6999 ;;      Totals:         0      12       0       0       0
  7000 ;;Total ram usage:       12 bytes
  7001 ;; Hardware stack levels used: 1
  7002 ;; Hardware stack levels required when called: 1
  7003 ;; This function calls:
  7004 ;;		Nothing
  7005 ;; This function is called by:
  7006 ;;		_run_program
  7007 ;; This function uses a non-reentrant model
  7008 ;;
  7009                           
  7010     0822                     ___flge:	
  7011                           ;psect for function ___flge
  7012                           
  7013     0822                     l2430:	
  7014                           ;incstack = 0
  7015                           ; Regs used in ___flge: [wreg+status,2+status,0]
  7016                           
  7017     0822  3000               	movlw	0
  7018     0823  1283               	bcf	3,5	;RP0=0, select bank0
  7019     0824  1303               	bcf	3,6	;RP1=0, select bank0
  7020     0825  0548               	andwf	___flge@ff1,w
  7021     0826  00D0               	movwf	??___flge
  7022     0827  3000               	movlw	0
  7023     0828  0549               	andwf	___flge@ff1+1,w
  7024     0829  00D1               	movwf	??___flge+1
  7025     082A  3080               	movlw	128
  7026     082B  054A               	andwf	___flge@ff1+2,w
  7027     082C  00D2               	movwf	??___flge+2
  7028     082D  307F               	movlw	127
  7029     082E  054B               	andwf	___flge@ff1+3,w
  7030     082F  00D3               	movwf	??___flge+3
  7031     0830  0853               	movf	??___flge+3,w
  7032     0831  0452               	iorwf	??___flge+2,w
  7033     0832  0451               	iorwf	??___flge+1,w
  7034     0833  0450               	iorwf	??___flge,w
  7035     0834  1D03               	skipz
  7036     0835  2837               	goto	u2701
  7037     0836  2838               	goto	u2700
  7038     0837                     u2701:
  7039     0837  2840               	goto	l632
  7040     0838                     u2700:
  7041     0838                     l2432:
  7042     0838  3000               	movlw	0
  7043     0839  00CB               	movwf	___flge@ff1+3
  7044     083A  3000               	movlw	0
  7045     083B  00CA               	movwf	___flge@ff1+2
  7046     083C  3000               	movlw	0
  7047     083D  00C9               	movwf	___flge@ff1+1
  7048     083E  3000               	movlw	0
  7049     083F  00C8               	movwf	___flge@ff1
  7050     0840                     l632:
  7051     0840  3000               	movlw	0
  7052     0841  054C               	andwf	___flge@ff2,w
  7053     0842  00D0               	movwf	??___flge
  7054     0843  3000               	movlw	0
  7055     0844  054D               	andwf	___flge@ff2+1,w
  7056     0845  00D1               	movwf	??___flge+1
  7057     0846  3080               	movlw	128
  7058     0847  054E               	andwf	___flge@ff2+2,w
  7059     0848  00D2               	movwf	??___flge+2
  7060     0849  307F               	movlw	127
  7061     084A  054F               	andwf	___flge@ff2+3,w
  7062     084B  00D3               	movwf	??___flge+3
  7063     084C  0853               	movf	??___flge+3,w
  7064     084D  0452               	iorwf	??___flge+2,w
  7065     084E  0451               	iorwf	??___flge+1,w
  7066     084F  0450               	iorwf	??___flge,w
  7067     0850  1D03               	skipz
  7068     0851  2853               	goto	u2711
  7069     0852  2854               	goto	u2710
  7070     0853                     u2711:
  7071     0853  285C               	goto	l2436
  7072     0854                     u2710:
  7073     0854                     l2434:
  7074     0854  3000               	movlw	0
  7075     0855  00CF               	movwf	___flge@ff2+3
  7076     0856  3000               	movlw	0
  7077     0857  00CE               	movwf	___flge@ff2+2
  7078     0858  3000               	movlw	0
  7079     0859  00CD               	movwf	___flge@ff2+1
  7080     085A  3000               	movlw	0
  7081     085B  00CC               	movwf	___flge@ff2
  7082     085C                     l2436:
  7083     085C  1FCB               	btfss	___flge@ff1+3,7
  7084     085D  285F               	goto	u2721
  7085     085E  2860               	goto	u2720
  7086     085F                     u2721:
  7087     085F  2884               	goto	l2440
  7088     0860                     u2720:
  7089     0860                     l2438:
  7090     0860  3000               	movlw	0
  7091     0861  00D0               	movwf	??___flge
  7092     0862  3000               	movlw	0
  7093     0863  00D1               	movwf	??___flge+1
  7094     0864  3000               	movlw	0
  7095     0865  00D2               	movwf	??___flge+2
  7096     0866  3080               	movlw	128
  7097     0867  00D3               	movwf	??___flge+3
  7098     0868  0848               	movf	___flge@ff1,w
  7099     0869  02D0               	subwf	??___flge,f
  7100     086A  0849               	movf	___flge@ff1+1,w
  7101     086B  1C03               	skipc
  7102     086C  0F49               	incfsz	___flge@ff1+1,w
  7103     086D  286F               	goto	u2731
  7104     086E  2870               	goto	u2732
  7105     086F                     u2731:
  7106     086F  02D1               	subwf	??___flge+1,f
  7107     0870                     u2732:
  7108     0870  084A               	movf	___flge@ff1+2,w
  7109     0871  1C03               	skipc
  7110     0872  0F4A               	incfsz	___flge@ff1+2,w
  7111     0873  2875               	goto	u2733
  7112     0874  2876               	goto	u2734
  7113     0875                     u2733:
  7114     0875  02D2               	subwf	??___flge+2,f
  7115     0876                     u2734:
  7116     0876  084B               	movf	___flge@ff1+3,w
  7117     0877  1C03               	skipc
  7118     0878  0F4B               	incfsz	___flge@ff1+3,w
  7119     0879  287B               	goto	u2735
  7120     087A  287C               	goto	u2736
  7121     087B                     u2735:
  7122     087B  02D3               	subwf	??___flge+3,f
  7123     087C                     u2736:
  7124     087C  0853               	movf	??___flge+3,w
  7125     087D  00CB               	movwf	___flge@ff1+3
  7126     087E  0852               	movf	??___flge+2,w
  7127     087F  00CA               	movwf	___flge@ff1+2
  7128     0880  0851               	movf	??___flge+1,w
  7129     0881  00C9               	movwf	___flge@ff1+1
  7130     0882  0850               	movf	??___flge,w
  7131     0883  00C8               	movwf	___flge@ff1
  7132     0884                     l2440:
  7133     0884  1FCF               	btfss	___flge@ff2+3,7
  7134     0885  2887               	goto	u2741
  7135     0886  2888               	goto	u2740
  7136     0887                     u2741:
  7137     0887  28AC               	goto	l635
  7138     0888                     u2740:
  7139     0888                     l2442:
  7140     0888  3000               	movlw	0
  7141     0889  00D0               	movwf	??___flge
  7142     088A  3000               	movlw	0
  7143     088B  00D1               	movwf	??___flge+1
  7144     088C  3000               	movlw	0
  7145     088D  00D2               	movwf	??___flge+2
  7146     088E  3080               	movlw	128
  7147     088F  00D3               	movwf	??___flge+3
  7148     0890  084C               	movf	___flge@ff2,w
  7149     0891  02D0               	subwf	??___flge,f
  7150     0892  084D               	movf	___flge@ff2+1,w
  7151     0893  1C03               	skipc
  7152     0894  0F4D               	incfsz	___flge@ff2+1,w
  7153     0895  2897               	goto	u2751
  7154     0896  2898               	goto	u2752
  7155     0897                     u2751:
  7156     0897  02D1               	subwf	??___flge+1,f
  7157     0898                     u2752:
  7158     0898  084E               	movf	___flge@ff2+2,w
  7159     0899  1C03               	skipc
  7160     089A  0F4E               	incfsz	___flge@ff2+2,w
  7161     089B  289D               	goto	u2753
  7162     089C  289E               	goto	u2754
  7163     089D                     u2753:
  7164     089D  02D2               	subwf	??___flge+2,f
  7165     089E                     u2754:
  7166     089E  084F               	movf	___flge@ff2+3,w
  7167     089F  1C03               	skipc
  7168     08A0  0F4F               	incfsz	___flge@ff2+3,w
  7169     08A1  28A3               	goto	u2755
  7170     08A2  28A4               	goto	u2756
  7171     08A3                     u2755:
  7172     08A3  02D3               	subwf	??___flge+3,f
  7173     08A4                     u2756:
  7174     08A4  0853               	movf	??___flge+3,w
  7175     08A5  00CF               	movwf	___flge@ff2+3
  7176     08A6  0852               	movf	??___flge+2,w
  7177     08A7  00CE               	movwf	___flge@ff2+2
  7178     08A8  0851               	movf	??___flge+1,w
  7179     08A9  00CD               	movwf	___flge@ff2+1
  7180     08AA  0850               	movf	??___flge,w
  7181     08AB  00CC               	movwf	___flge@ff2
  7182     08AC                     l635:
  7183     08AC  3080               	movlw	128
  7184     08AD  06CB               	xorwf	___flge@ff1+3,f
  7185     08AE  3080               	movlw	128
  7186     08AF  06CF               	xorwf	___flge@ff2+3,f
  7187     08B0  084F               	movf	___flge@ff2+3,w
  7188     08B1  024B               	subwf	___flge@ff1+3,w
  7189     08B2  1D03               	skipz
  7190     08B3  28BE               	goto	u2765
  7191     08B4  084E               	movf	___flge@ff2+2,w
  7192     08B5  024A               	subwf	___flge@ff1+2,w
  7193     08B6  1D03               	skipz
  7194     08B7  28BE               	goto	u2765
  7195     08B8  084D               	movf	___flge@ff2+1,w
  7196     08B9  0249               	subwf	___flge@ff1+1,w
  7197     08BA  1D03               	skipz
  7198     08BB  28BE               	goto	u2765
  7199     08BC  084C               	movf	___flge@ff2,w
  7200     08BD  0248               	subwf	___flge@ff1,w
  7201     08BE                     u2765:
  7202     08BE  1803               	skipnc
  7203     08BF  28C1               	goto	u2761
  7204     08C0  28C2               	goto	u2760
  7205     08C1                     u2761:
  7206     08C1  28C4               	goto	l2446
  7207     08C2                     u2760:
  7208     08C2                     l2444:
  7209     08C2  1003               	clrc
  7210     08C3  28C5               	goto	l640
  7211     08C4                     l2446:
  7212     08C4  1403               	setc
  7213     08C5                     l640:
  7214     08C5  0008               	return
  7215     08C6                     __end_of___flge:
  7216                           
  7217                           	psect	text14
  7218     14A2                     __ptext14:	
  7219 ;; *************** function ___bmul *****************
  7220 ;; Defined at:
  7221 ;;		line 4 in file "D:\Aarav study\pic\sources\c99\common\Umul8.c"
  7222 ;; Parameters:    Size  Location     Type
  7223 ;;  multiplier      1    wreg     unsigned char 
  7224 ;;  multiplicand    1    2[COMMON] unsigned char 
  7225 ;; Auto vars:     Size  Location     Type
  7226 ;;  multiplier      1    4[COMMON] unsigned char 
  7227 ;;  product         1    3[COMMON] unsigned char 
  7228 ;; Return value:  Size  Location     Type
  7229 ;;                  1    wreg      unsigned char 
  7230 ;; Registers used:
  7231 ;;		wreg, status,2, status,0
  7232 ;; Tracked objects:
  7233 ;;		On entry : 0/0
  7234 ;;		On exit  : 0/0
  7235 ;;		Unchanged: 0/0
  7236 ;; Data sizes:     COMMON   BANK0   BANK1   BANK3   BANK2
  7237 ;;      Params:         1       0       0       0       0
  7238 ;;      Locals:         2       0       0       0       0
  7239 ;;      Temps:          0       0       0       0       0
  7240 ;;      Totals:         3       0       0       0       0
  7241 ;;Total ram usage:        3 bytes
  7242 ;; Hardware stack levels used: 1
  7243 ;; Hardware stack levels required when called: 1
  7244 ;; This function calls:
  7245 ;;		Nothing
  7246 ;; This function is called by:
  7247 ;;		_run_program
  7248 ;; This function uses a non-reentrant model
  7249 ;;
  7250                           
  7251     14A2                     ___bmul:	
  7252                           ;psect for function ___bmul
  7253                           
  7254                           
  7255                           ;incstack = 0
  7256                           ; Regs used in ___bmul: [wreg+status,2+status,0]
  7257                           ;___bmul@multiplier stored from wreg
  7258     14A2  00F4               	movwf	___bmul@multiplier
  7259     14A3                     l2334:
  7260     14A3  01F3               	clrf	___bmul@product
  7261     14A4                     l2336:
  7262     14A4  1C74               	btfss	___bmul@multiplier,0
  7263     14A5  2CA7               	goto	u2491
  7264     14A6  2CA8               	goto	u2490
  7265     14A7                     u2491:
  7266     14A7  2CAA               	goto	l2340
  7267     14A8                     u2490:
  7268     14A8                     l2338:
  7269     14A8  0872               	movf	___bmul@multiplicand,w
  7270     14A9  07F3               	addwf	___bmul@product,f
  7271     14AA                     l2340:
  7272     14AA  1003               	clrc
  7273     14AB  0DF2               	rlf	___bmul@multiplicand,f
  7274     14AC                     l2342:
  7275     14AC  1003               	clrc
  7276     14AD  0CF4               	rrf	___bmul@multiplier,f
  7277     14AE  0874               	movf	___bmul@multiplier,w
  7278     14AF  1D03               	btfss	3,2
  7279     14B0  2CB2               	goto	u2501
  7280     14B1  2CB3               	goto	u2500
  7281     14B2                     u2501:
  7282     14B2  2CA4               	goto	l2336
  7283     14B3                     u2500:
  7284     14B3                     l2344:
  7285     14B3  0873               	movf	___bmul@product,w
  7286     14B4                     l480:
  7287     14B4  0008               	return
  7288     14B5                     __end_of___bmul:
  7289                           
  7290                           	psect	text15
  7291     1671                     __ptext15:	
  7292 ;; *************** function ___awmod *****************
  7293 ;; Defined at:
  7294 ;;		line 5 in file "D:\Aarav study\pic\sources\c99\common\awmod.c"
  7295 ;; Parameters:    Size  Location     Type
  7296 ;;  divisor         2    2[COMMON] int 
  7297 ;;  dividend        2    4[COMMON] int 
  7298 ;; Auto vars:     Size  Location     Type
  7299 ;;  sign            1    7[COMMON] unsigned char 
  7300 ;;  counter         1    6[COMMON] unsigned char 
  7301 ;; Return value:  Size  Location     Type
  7302 ;;                  2    2[COMMON] int 
  7303 ;; Registers used:
  7304 ;;		wreg, status,2, status,0
  7305 ;; Tracked objects:
  7306 ;;		On entry : 0/0
  7307 ;;		On exit  : 0/0
  7308 ;;		Unchanged: 0/0
  7309 ;; Data sizes:     COMMON   BANK0   BANK1   BANK3   BANK2
  7310 ;;      Params:         4       0       0       0       0
  7311 ;;      Locals:         2       0       0       0       0
  7312 ;;      Temps:          0       0       0       0       0
  7313 ;;      Totals:         6       0       0       0       0
  7314 ;;Total ram usage:        6 bytes
  7315 ;; Hardware stack levels used: 1
  7316 ;; Hardware stack levels required when called: 1
  7317 ;; This function calls:
  7318 ;;		Nothing
  7319 ;; This function is called by:
  7320 ;;		_run_program
  7321 ;; This function uses a non-reentrant model
  7322 ;;
  7323                           
  7324     1671                     ___awmod:	
  7325                           ;psect for function ___awmod
  7326                           
  7327     1671                     l2392:	
  7328                           ;incstack = 0
  7329                           ; Regs used in ___awmod: [wreg+status,2+status,0]
  7330                           
  7331     1671  01F7               	clrf	___awmod@sign
  7332     1672                     l2394:
  7333     1672  1FF5               	btfss	___awmod@dividend+1,7
  7334     1673  2E75               	goto	u2611
  7335     1674  2E76               	goto	u2610
  7336     1675                     u2611:
  7337     1675  2E7D               	goto	l2400
  7338     1676                     u2610:
  7339     1676                     l2396:
  7340     1676  09F4               	comf	___awmod@dividend,f
  7341     1677  09F5               	comf	___awmod@dividend+1,f
  7342     1678  0AF4               	incf	___awmod@dividend,f
  7343     1679  1903               	skipnz
  7344     167A  0AF5               	incf	___awmod@dividend+1,f
  7345     167B                     l2398:
  7346     167B  3001               	movlw	1
  7347     167C  00F7               	movwf	___awmod@sign
  7348     167D                     l2400:
  7349     167D  1FF3               	btfss	___awmod@divisor+1,7
  7350     167E  2E80               	goto	u2621
  7351     167F  2E81               	goto	u2620
  7352     1680                     u2621:
  7353     1680  2E86               	goto	l2404
  7354     1681                     u2620:
  7355     1681                     l2402:
  7356     1681  09F2               	comf	___awmod@divisor,f
  7357     1682  09F3               	comf	___awmod@divisor+1,f
  7358     1683  0AF2               	incf	___awmod@divisor,f
  7359     1684  1903               	skipnz
  7360     1685  0AF3               	incf	___awmod@divisor+1,f
  7361     1686                     l2404:
  7362     1686  0872               	movf	___awmod@divisor,w
  7363     1687  0473               	iorwf	___awmod@divisor+1,w
  7364     1688  1903               	btfsc	3,2
  7365     1689  2E8B               	goto	u2631
  7366     168A  2E8C               	goto	u2630
  7367     168B                     u2631:
  7368     168B  2EB9               	goto	l2422
  7369     168C                     u2630:
  7370     168C                     l2406:
  7371     168C  3001               	movlw	1
  7372     168D  00F6               	movwf	___awmod@counter
  7373     168E  2E98               	goto	l2412
  7374     168F                     l2408:
  7375     168F  3001               	movlw	1
  7376     1690                     u2645:
  7377     1690  1003               	clrc
  7378     1691  0DF2               	rlf	___awmod@divisor,f
  7379     1692  0DF3               	rlf	___awmod@divisor+1,f
  7380     1693  3EFF               	addlw	-1
  7381     1694  1D03               	skipz
  7382     1695  2E90               	goto	u2645
  7383     1696                     l2410:
  7384     1696  3001               	movlw	1
  7385     1697  07F6               	addwf	___awmod@counter,f
  7386     1698                     l2412:
  7387     1698  1FF3               	btfss	___awmod@divisor+1,7
  7388     1699  2E9B               	goto	u2651
  7389     169A  2E9C               	goto	u2650
  7390     169B                     u2651:
  7391     169B  2E8F               	goto	l2408
  7392     169C                     u2650:
  7393     169C                     l2414:
  7394     169C  0873               	movf	___awmod@divisor+1,w
  7395     169D  0275               	subwf	___awmod@dividend+1,w
  7396     169E  1D03               	skipz
  7397     169F  2EA2               	goto	u2665
  7398     16A0  0872               	movf	___awmod@divisor,w
  7399     16A1  0274               	subwf	___awmod@dividend,w
  7400     16A2                     u2665:
  7401     16A2  1C03               	skipc
  7402     16A3  2EA5               	goto	u2661
  7403     16A4  2EA6               	goto	u2660
  7404     16A5                     u2661:
  7405     16A5  2EAC               	goto	l2418
  7406     16A6                     u2660:
  7407     16A6                     l2416:
  7408     16A6  0872               	movf	___awmod@divisor,w
  7409     16A7  02F4               	subwf	___awmod@dividend,f
  7410     16A8  0873               	movf	___awmod@divisor+1,w
  7411     16A9  1C03               	skipc
  7412     16AA  03F5               	decf	___awmod@dividend+1,f
  7413     16AB  02F5               	subwf	___awmod@dividend+1,f
  7414     16AC                     l2418:
  7415     16AC  3001               	movlw	1
  7416     16AD                     u2675:
  7417     16AD  1003               	clrc
  7418     16AE  0CF3               	rrf	___awmod@divisor+1,f
  7419     16AF  0CF2               	rrf	___awmod@divisor,f
  7420     16B0  3EFF               	addlw	-1
  7421     16B1  1D03               	skipz
  7422     16B2  2EAD               	goto	u2675
  7423     16B3                     l2420:
  7424     16B3  3001               	movlw	1
  7425     16B4  02F6               	subwf	___awmod@counter,f
  7426     16B5  1D03               	btfss	3,2
  7427     16B6  2EB8               	goto	u2681
  7428     16B7  2EB9               	goto	u2680
  7429     16B8                     u2681:
  7430     16B8  2E9C               	goto	l2414
  7431     16B9                     u2680:
  7432     16B9                     l2422:
  7433     16B9  0877               	movf	___awmod@sign,w
  7434     16BA  1903               	btfsc	3,2
  7435     16BB  2EBD               	goto	u2691
  7436     16BC  2EBE               	goto	u2690
  7437     16BD                     u2691:
  7438     16BD  2EC3               	goto	l2426
  7439     16BE                     u2690:
  7440     16BE                     l2424:
  7441     16BE  09F4               	comf	___awmod@dividend,f
  7442     16BF  09F5               	comf	___awmod@dividend+1,f
  7443     16C0  0AF4               	incf	___awmod@dividend,f
  7444     16C1  1903               	skipnz
  7445     16C2  0AF5               	incf	___awmod@dividend+1,f
  7446     16C3                     l2426:
  7447     16C3  0875               	movf	___awmod@dividend+1,w
  7448     16C4  00F3               	movwf	?___awmod+1
  7449     16C5  0874               	movf	___awmod@dividend,w
  7450     16C6  00F2               	movwf	?___awmod
  7451     16C7                     l620:
  7452     16C7  0008               	return
  7453     16C8                     __end_of___awmod:
  7454                           
  7455                           	psect	text16
  7456     1727                     __ptext16:	
  7457 ;; *************** function ___awdiv *****************
  7458 ;; Defined at:
  7459 ;;		line 5 in file "D:\Aarav study\pic\sources\c99\common\awdiv.c"
  7460 ;; Parameters:    Size  Location     Type
  7461 ;;  divisor         2    2[COMMON] int 
  7462 ;;  dividend        2    4[COMMON] int 
  7463 ;; Auto vars:     Size  Location     Type
  7464 ;;  quotient        2    8[COMMON] int 
  7465 ;;  sign            1    7[COMMON] unsigned char 
  7466 ;;  counter         1    6[COMMON] unsigned char 
  7467 ;; Return value:  Size  Location     Type
  7468 ;;                  2    2[COMMON] int 
  7469 ;; Registers used:
  7470 ;;		wreg, status,2, status,0
  7471 ;; Tracked objects:
  7472 ;;		On entry : 0/0
  7473 ;;		On exit  : 0/0
  7474 ;;		Unchanged: 0/0
  7475 ;; Data sizes:     COMMON   BANK0   BANK1   BANK3   BANK2
  7476 ;;      Params:         4       0       0       0       0
  7477 ;;      Locals:         4       0       0       0       0
  7478 ;;      Temps:          0       0       0       0       0
  7479 ;;      Totals:         8       0       0       0       0
  7480 ;;Total ram usage:        8 bytes
  7481 ;; Hardware stack levels used: 1
  7482 ;; Hardware stack levels required when called: 1
  7483 ;; This function calls:
  7484 ;;		Nothing
  7485 ;; This function is called by:
  7486 ;;		_run_program
  7487 ;; This function uses a non-reentrant model
  7488 ;;
  7489                           
  7490     1727                     ___awdiv:	
  7491                           ;psect for function ___awdiv
  7492                           
  7493     1727                     l2348:	
  7494                           ;incstack = 0
  7495                           ; Regs used in ___awdiv: [wreg+status,2+status,0]
  7496                           
  7497     1727  01F7               	clrf	___awdiv@sign
  7498     1728                     l2350:
  7499     1728  1FF3               	btfss	___awdiv@divisor+1,7
  7500     1729  2F2B               	goto	u2511
  7501     172A  2F2C               	goto	u2510
  7502     172B                     u2511:
  7503     172B  2F33               	goto	l2356
  7504     172C                     u2510:
  7505     172C                     l2352:
  7506     172C  09F2               	comf	___awdiv@divisor,f
  7507     172D  09F3               	comf	___awdiv@divisor+1,f
  7508     172E  0AF2               	incf	___awdiv@divisor,f
  7509     172F  1903               	skipnz
  7510     1730  0AF3               	incf	___awdiv@divisor+1,f
  7511     1731                     l2354:
  7512     1731  3001               	movlw	1
  7513     1732  00F7               	movwf	___awdiv@sign
  7514     1733                     l2356:
  7515     1733  1FF5               	btfss	___awdiv@dividend+1,7
  7516     1734  2F36               	goto	u2521
  7517     1735  2F37               	goto	u2520
  7518     1736                     u2521:
  7519     1736  2F3E               	goto	l2362
  7520     1737                     u2520:
  7521     1737                     l2358:
  7522     1737  09F4               	comf	___awdiv@dividend,f
  7523     1738  09F5               	comf	___awdiv@dividend+1,f
  7524     1739  0AF4               	incf	___awdiv@dividend,f
  7525     173A  1903               	skipnz
  7526     173B  0AF5               	incf	___awdiv@dividend+1,f
  7527     173C                     l2360:
  7528     173C  3001               	movlw	1
  7529     173D  06F7               	xorwf	___awdiv@sign,f
  7530     173E                     l2362:
  7531     173E  01F8               	clrf	___awdiv@quotient
  7532     173F  01F9               	clrf	___awdiv@quotient+1
  7533     1740                     l2364:
  7534     1740  0872               	movf	___awdiv@divisor,w
  7535     1741  0473               	iorwf	___awdiv@divisor+1,w
  7536     1742  1903               	btfsc	3,2
  7537     1743  2F45               	goto	u2531
  7538     1744  2F46               	goto	u2530
  7539     1745                     u2531:
  7540     1745  2F7B               	goto	l2384
  7541     1746                     u2530:
  7542     1746                     l2366:
  7543     1746  3001               	movlw	1
  7544     1747  00F6               	movwf	___awdiv@counter
  7545     1748  2F52               	goto	l2372
  7546     1749                     l2368:
  7547     1749  3001               	movlw	1
  7548     174A                     u2545:
  7549     174A  1003               	clrc
  7550     174B  0DF2               	rlf	___awdiv@divisor,f
  7551     174C  0DF3               	rlf	___awdiv@divisor+1,f
  7552     174D  3EFF               	addlw	-1
  7553     174E  1D03               	skipz
  7554     174F  2F4A               	goto	u2545
  7555     1750                     l2370:
  7556     1750  3001               	movlw	1
  7557     1751  07F6               	addwf	___awdiv@counter,f
  7558     1752                     l2372:
  7559     1752  1FF3               	btfss	___awdiv@divisor+1,7
  7560     1753  2F55               	goto	u2551
  7561     1754  2F56               	goto	u2550
  7562     1755                     u2551:
  7563     1755  2F49               	goto	l2368
  7564     1756                     u2550:
  7565     1756                     l2374:
  7566     1756  3001               	movlw	1
  7567     1757                     u2565:
  7568     1757  1003               	clrc
  7569     1758  0DF8               	rlf	___awdiv@quotient,f
  7570     1759  0DF9               	rlf	___awdiv@quotient+1,f
  7571     175A  3EFF               	addlw	-1
  7572     175B  1D03               	skipz
  7573     175C  2F57               	goto	u2565
  7574     175D  0873               	movf	___awdiv@divisor+1,w
  7575     175E  0275               	subwf	___awdiv@dividend+1,w
  7576     175F  1D03               	skipz
  7577     1760  2F63               	goto	u2575
  7578     1761  0872               	movf	___awdiv@divisor,w
  7579     1762  0274               	subwf	___awdiv@dividend,w
  7580     1763                     u2575:
  7581     1763  1C03               	skipc
  7582     1764  2F66               	goto	u2571
  7583     1765  2F67               	goto	u2570
  7584     1766                     u2571:
  7585     1766  2F6E               	goto	l2380
  7586     1767                     u2570:
  7587     1767                     l2376:
  7588     1767  0872               	movf	___awdiv@divisor,w
  7589     1768  02F4               	subwf	___awdiv@dividend,f
  7590     1769  0873               	movf	___awdiv@divisor+1,w
  7591     176A  1C03               	skipc
  7592     176B  03F5               	decf	___awdiv@dividend+1,f
  7593     176C  02F5               	subwf	___awdiv@dividend+1,f
  7594     176D                     l2378:
  7595     176D  1478               	bsf	___awdiv@quotient,0
  7596     176E                     l2380:
  7597     176E  3001               	movlw	1
  7598     176F                     u2585:
  7599     176F  1003               	clrc
  7600     1770  0CF3               	rrf	___awdiv@divisor+1,f
  7601     1771  0CF2               	rrf	___awdiv@divisor,f
  7602     1772  3EFF               	addlw	-1
  7603     1773  1D03               	skipz
  7604     1774  2F6F               	goto	u2585
  7605     1775                     l2382:
  7606     1775  3001               	movlw	1
  7607     1776  02F6               	subwf	___awdiv@counter,f
  7608     1777  1D03               	btfss	3,2
  7609     1778  2F7A               	goto	u2591
  7610     1779  2F7B               	goto	u2590
  7611     177A                     u2591:
  7612     177A  2F56               	goto	l2374
  7613     177B                     u2590:
  7614     177B                     l2384:
  7615     177B  0877               	movf	___awdiv@sign,w
  7616     177C  1903               	btfsc	3,2
  7617     177D  2F7F               	goto	u2601
  7618     177E  2F80               	goto	u2600
  7619     177F                     u2601:
  7620     177F  2F85               	goto	l2388
  7621     1780                     u2600:
  7622     1780                     l2386:
  7623     1780  09F8               	comf	___awdiv@quotient,f
  7624     1781  09F9               	comf	___awdiv@quotient+1,f
  7625     1782  0AF8               	incf	___awdiv@quotient,f
  7626     1783  1903               	skipnz
  7627     1784  0AF9               	incf	___awdiv@quotient+1,f
  7628     1785                     l2388:
  7629     1785  0879               	movf	___awdiv@quotient+1,w
  7630     1786  00F3               	movwf	?___awdiv+1
  7631     1787  0878               	movf	___awdiv@quotient,w
  7632     1788  00F2               	movwf	?___awdiv
  7633     1789                     l607:
  7634     1789  0008               	return
  7635     178A                     __end_of___awdiv:
  7636                           
  7637                           	psect	text17
  7638     15C6                     __ptext17:	
  7639 ;; *************** function _read_digital_keypad *****************
  7640 ;; Defined at:
  7641 ;;		line 11 in file "digital_keypad.c"
  7642 ;; Parameters:    Size  Location     Type
  7643 ;;  mode            1    wreg     unsigned char 
  7644 ;; Auto vars:     Size  Location     Type
  7645 ;;  mode            1    0[COMMON] unsigned char 
  7646 ;;  key             1    2[COMMON] unsigned char 
  7647 ;; Return value:  Size  Location     Type
  7648 ;;                  1    wreg      unsigned char 
  7649 ;; Registers used:
  7650 ;;		wreg, status,2, status,0
  7651 ;; Tracked objects:
  7652 ;;		On entry : 0/0
  7653 ;;		On exit  : 0/0
  7654 ;;		Unchanged: 0/0
  7655 ;; Data sizes:     COMMON   BANK0   BANK1   BANK3   BANK2
  7656 ;;      Params:         0       0       0       0       0
  7657 ;;      Locals:         1       0       0       0       0
  7658 ;;      Temps:          0       0       0       0       0
  7659 ;;      Totals:         1       0       0       0       0
  7660 ;;Total ram usage:        1 bytes
  7661 ;; Hardware stack levels used: 1
  7662 ;; Hardware stack levels required when called: 1
  7663 ;; This function calls:
  7664 ;;		Nothing
  7665 ;; This function is called by:
  7666 ;;		_main
  7667 ;; This function uses a non-reentrant model
  7668 ;;
  7669                           
  7670     15C6                     _read_digital_keypad:	
  7671                           ;psect for function _read_digital_keypad
  7672                           
  7673     15C6                     l2692:	
  7674                           ;incstack = 0
  7675                           ; Regs used in _read_digital_keypad: [wreg+status,2+status,0]
  7676                           
  7677                           
  7678                           ;digital_keypad.c: 11: unsigned char read_digital_keypad(unsigned char mode);digital_key
      +                          pad.c: 12: {;digital_keypad.c: 13:     static unsigned char once = 1;;digital_keypad.c: 
      +                          14:     static unsigned char longpressed = 1;;digital_keypad.c: 15:     static unsigned 
      +                          char pre_key;;digital_keypad.c: 16:     unsigned char key = PORTB & 0x3F;
  7679     15C6  1283               	bcf	3,5	;RP0=0, select bank0
  7680     15C7  1303               	bcf	3,6	;RP1=0, select bank0
  7681     15C8  0806               	movf	6,w	;volatile
  7682     15C9  00F2               	movwf	read_digital_keypad@key
  7683     15CA                     l2694:
  7684     15CA  303F               	movlw	63
  7685     15CB  05F2               	andwf	read_digital_keypad@key,f
  7686     15CC                     l2696:
  7687                           
  7688                           ;digital_keypad.c: 17:     if(key != 0x3F && once ){
  7689     15CC  303F               	movlw	63
  7690     15CD  0672               	xorwf	read_digital_keypad@key,w
  7691     15CE  1903               	btfsc	3,2
  7692     15CF  2DD1               	goto	u3381
  7693     15D0  2DD2               	goto	u3380
  7694     15D1                     u3381:
  7695     15D1  2DDE               	goto	l2704
  7696     15D2                     u3380:
  7697     15D2                     l2698:
  7698     15D2  087B               	movf	read_digital_keypad@once,w
  7699     15D3  1903               	btfsc	3,2
  7700     15D4  2DD6               	goto	u3391
  7701     15D5  2DD7               	goto	u3390
  7702     15D6                     u3391:
  7703     15D6  2DDE               	goto	l2704
  7704     15D7                     u3390:
  7705     15D7                     l2700:
  7706                           
  7707                           ;digital_keypad.c: 18:         once = 0;
  7708     15D7  01FB               	clrf	read_digital_keypad@once
  7709                           
  7710                           ;digital_keypad.c: 19:         longpressed = 0;
  7711     15D8  01FA               	clrf	read_digital_keypad@longpressed
  7712     15D9                     l2702:
  7713                           
  7714                           ;digital_keypad.c: 20:         pre_key = key;
  7715     15D9  0872               	movf	read_digital_keypad@key,w
  7716     15DA  1683               	bsf	3,5	;RP0=1, select bank1
  7717     15DB  1303               	bcf	3,6	;RP1=0, select bank1
  7718     15DC  00C6               	movwf	read_digital_keypad@pre_key^(0+128)
  7719                           
  7720                           ;digital_keypad.c: 22:     }
  7721     15DD  2E18               	goto	l2734
  7722     15DE                     l2704:
  7723     15DE  303F               	movlw	63
  7724     15DF  0672               	xorwf	read_digital_keypad@key,w
  7725     15E0  1D03               	btfss	3,2
  7726     15E1  2DE3               	goto	u3401
  7727     15E2  2DE4               	goto	u3400
  7728     15E3                     u3401:
  7729     15E3  2DF5               	goto	l2716
  7730     15E4                     u3400:
  7731     15E4                     l2706:
  7732     15E4  087B               	movf	read_digital_keypad@once,w
  7733     15E5  1D03               	btfss	3,2
  7734     15E6  2DE8               	goto	u3411
  7735     15E7  2DE9               	goto	u3410
  7736     15E8                     u3411:
  7737     15E8  2DF5               	goto	l2716
  7738     15E9                     u3410:
  7739     15E9                     l2708:
  7740                           
  7741                           ;digital_keypad.c: 24:         once = 1;
  7742     15E9  3001               	movlw	1
  7743     15EA  00FB               	movwf	read_digital_keypad@once
  7744     15EB                     l2710:
  7745                           
  7746                           ;digital_keypad.c: 25:         if(longpressed <30)
  7747     15EB  301E               	movlw	30
  7748     15EC  027A               	subwf	read_digital_keypad@longpressed,w
  7749     15ED  1803               	skipnc
  7750     15EE  2DF0               	goto	u3421
  7751     15EF  2DF1               	goto	u3420
  7752     15F0                     u3421:
  7753     15F0  2E18               	goto	l2734
  7754     15F1                     u3420:
  7755     15F1                     l2712:
  7756                           
  7757                           ;digital_keypad.c: 26:         return pre_key;
  7758     15F1  1683               	bsf	3,5	;RP0=1, select bank1
  7759     15F2  1303               	bcf	3,6	;RP1=0, select bank1
  7760     15F3  0846               	movf	read_digital_keypad@pre_key^(0+128),w
  7761     15F4  2E19               	goto	l337
  7762     15F5                     l2716:
  7763     15F5  087B               	movf	read_digital_keypad@once,w
  7764     15F6  1D03               	btfss	3,2
  7765     15F7  2DF9               	goto	u3431
  7766     15F8  2DFA               	goto	u3430
  7767     15F9                     u3431:
  7768     15F9  2E03               	goto	l2722
  7769     15FA                     u3430:
  7770     15FA                     l2718:
  7771     15FA  301F               	movlw	31
  7772     15FB  027A               	subwf	read_digital_keypad@longpressed,w
  7773     15FC  1803               	skipnc
  7774     15FD  2DFF               	goto	u3441
  7775     15FE  2E00               	goto	u3440
  7776     15FF                     u3441:
  7777     15FF  2E03               	goto	l2722
  7778     1600                     u3440:
  7779     1600                     l2720:
  7780                           
  7781                           ;digital_keypad.c: 29:         longpressed++;
  7782     1600  3001               	movlw	1
  7783     1601  07FA               	addwf	read_digital_keypad@longpressed,f
  7784                           
  7785                           ;digital_keypad.c: 30:     }
  7786     1602  2E18               	goto	l2734
  7787     1603                     l2722:
  7788     1603  087B               	movf	read_digital_keypad@once,w
  7789     1604  1D03               	btfss	3,2
  7790     1605  2E07               	goto	u3451
  7791     1606  2E08               	goto	u3450
  7792     1607                     u3451:
  7793     1607  2E18               	goto	l338
  7794     1608                     u3450:
  7795     1608                     l2724:
  7796     1608  301F               	movlw	31
  7797     1609  067A               	xorwf	read_digital_keypad@longpressed,w
  7798     160A  1D03               	btfss	3,2
  7799     160B  2E0D               	goto	u3461
  7800     160C  2E0E               	goto	u3460
  7801     160D                     u3461:
  7802     160D  2E18               	goto	l338
  7803     160E                     u3460:
  7804     160E                     l2726:
  7805     160E  3037               	movlw	55
  7806     160F  0672               	xorwf	read_digital_keypad@key,w
  7807     1610  1D03               	btfss	3,2
  7808     1611  2E13               	goto	u3471
  7809     1612  2E14               	goto	u3470
  7810     1613                     u3471:
  7811     1613  2E18               	goto	l338
  7812     1614                     u3470:
  7813     1614                     l2728:
  7814                           
  7815                           ;digital_keypad.c: 32:     {;digital_keypad.c: 33:         longpressed ++;
  7816     1614  3001               	movlw	1
  7817     1615  07FA               	addwf	read_digital_keypad@longpressed,f
  7818     1616                     l2730:
  7819                           
  7820                           ;digital_keypad.c: 34:         return 0x99;
  7821     1616  3099               	movlw	153
  7822     1617  2E19               	goto	l337
  7823     1618                     l338:
  7824     1618                     l2734:
  7825                           
  7826                           ;digital_keypad.c: 37:     return 0x3F;
  7827     1618  303F               	movlw	63
  7828     1619                     l337:
  7829     1619  0008               	return
  7830     161A                     __end_of_read_digital_keypad:
  7831                           
  7832                           	psect	text18
  7833     0763                     __ptext18:	
  7834 ;; *************** function _powering_on *****************
  7835 ;; Defined at:
  7836 ;;		line 19 in file "WASHING_MACH_func.c"
  7837 ;; Parameters:    Size  Location     Type
  7838 ;;		None
  7839 ;; Auto vars:     Size  Location     Type
  7840 ;;  i               1    6[BANK0 ] unsigned char 
  7841 ;;  i               1    5[BANK0 ] unsigned char 
  7842 ;; Return value:  Size  Location     Type
  7843 ;;                  1    wreg      void 
  7844 ;; Registers used:
  7845 ;;		wreg, fsr0l, fsr0h, status,2, status,0, btemp+1, pclath, cstack
  7846 ;; Tracked objects:
  7847 ;;		On entry : 0/0
  7848 ;;		On exit  : 0/0
  7849 ;;		Unchanged: 0/0
  7850 ;; Data sizes:     COMMON   BANK0   BANK1   BANK3   BANK2
  7851 ;;      Params:         0       0       0       0       0
  7852 ;;      Locals:         0       2       0       0       0
  7853 ;;      Temps:          0       3       0       0       0
  7854 ;;      Totals:         0       5       0       0       0
  7855 ;;Total ram usage:        5 bytes
  7856 ;; Hardware stack levels used: 1
  7857 ;; Hardware stack levels required when called: 3
  7858 ;; This function calls:
  7859 ;;		_clcd_print
  7860 ;;		_clcd_putch
  7861 ;; This function is called by:
  7862 ;;		_main
  7863 ;; This function uses a non-reentrant model
  7864 ;;
  7865                           
  7866     0763                     _powering_on:	
  7867                           ;psect for function _powering_on
  7868                           
  7869     0763                     l3426:	
  7870                           ;incstack = 0
  7871                           ; Regs used in _powering_on: [wreg-fsr0h+status,2+status,0+btemp+1+pclath+cstack]
  7872                           
  7873                           
  7874                           ;WASHING_MACH_func.c: 21:     for(unsigned char i=0;i<16;i++){
  7875     0763  1283               	bcf	3,5	;RP0=0, select bank0
  7876     0764  1303               	bcf	3,6	;RP1=0, select bank0
  7877     0765  01A5               	clrf	powering_on@i
  7878     0766                     l3432:
  7879                           
  7880                           ;WASHING_MACH_func.c: 22:         clcd_putch(0xFF,(0x80 + i));
  7881     0766  0825               	movf	powering_on@i,w
  7882     0767  3E80               	addlw	128
  7883     0768  00A0               	movwf	clcd_putch@addr
  7884     0769  30FF               	movlw	255
  7885     076A  160A  118A  24C8  120A  118A  	fcall	_clcd_putch
  7886     076F                     l3434:
  7887                           
  7888                           ;WASHING_MACH_func.c: 23:         _delay((unsigned long)((100)*(20000000/4000.0)));
  7889     076F  3003               	movlw	3
  7890     0770  1283               	bcf	3,5	;RP0=0, select bank0
  7891     0771  1303               	bcf	3,6	;RP1=0, select bank0
  7892     0772  00A4               	movwf	??_powering_on+2
  7893     0773  308A               	movlw	138
  7894     0774  00A3               	movwf	??_powering_on+1
  7895     0775  3055               	movlw	85
  7896     0776  00A2               	movwf	??_powering_on
  7897     0777                     u4747:
  7898     0777  0BA2               	decfsz	??_powering_on,f
  7899     0778  2F77               	goto	u4747
  7900     0779  0BA3               	decfsz	??_powering_on+1,f
  7901     077A  2F77               	goto	u4747
  7902     077B  0BA4               	decfsz	??_powering_on+2,f
  7903     077C  2F77               	goto	u4747
  7904     077D                     l3436:
  7905                           
  7906                           ;WASHING_MACH_func.c: 24:     }
  7907     077D  3001               	movlw	1
  7908     077E  1283               	bcf	3,5	;RP0=0, select bank0
  7909     077F  1303               	bcf	3,6	;RP1=0, select bank0
  7910     0780  07A5               	addwf	powering_on@i,f
  7911     0781                     l3438:
  7912     0781  3010               	movlw	16
  7913     0782  0225               	subwf	powering_on@i,w
  7914     0783  1C03               	skipc
  7915     0784  2F86               	goto	u4341
  7916     0785  2F87               	goto	u4340
  7917     0786                     u4341:
  7918     0786  2F66               	goto	l3432
  7919     0787                     u4340:
  7920     0787                     l3440:
  7921                           
  7922                           ;WASHING_MACH_func.c: 25:       clcd_putch(0xFF,(0x80 + 1));
  7923     0787  3081               	movlw	129
  7924     0788  00A0               	movwf	clcd_putch@addr
  7925     0789  30FF               	movlw	255
  7926     078A  160A  118A  24C8  120A  118A  	fcall	_clcd_putch
  7927                           
  7928                           ;WASHING_MACH_func.c: 26:       clcd_putch(0xFF,(0x80 + 2));
  7929     078F  3082               	movlw	130
  7930     0790  1283               	bcf	3,5	;RP0=0, select bank0
  7931     0791  1303               	bcf	3,6	;RP1=0, select bank0
  7932     0792  00A0               	movwf	clcd_putch@addr
  7933     0793  30FF               	movlw	255
  7934     0794  160A  118A  24C8  120A  118A  	fcall	_clcd_putch
  7935     0799                     l3442:
  7936                           
  7937                           ;WASHING_MACH_func.c: 27:     clcd_print("Powering on",(0xC0 + 2));
  7938     0799  3097               	movlw	low (STR_24| (0+32768))
  7939     079A  00F6               	movwf	clcd_print@str
  7940     079B  3090               	movlw	high (STR_24| (0+32768))
  7941     079C  00F7               	movwf	clcd_print@str+1
  7942     079D  30C2               	movlw	194
  7943     079E  00F8               	movwf	clcd_print@addr
  7944     079F  160A  118A  254A  120A  118A  	fcall	_clcd_print
  7945     07A4                     l3444:
  7946                           
  7947                           ;WASHING_MACH_func.c: 28:     clcd_print("Washing  machine",(0x90 + 0));
  7948     07A4  3011               	movlw	low (STR_25| (0+32768))
  7949     07A5  00F6               	movwf	clcd_print@str
  7950     07A6  3090               	movlw	high (STR_25| (0+32768))
  7951     07A7  00F7               	movwf	clcd_print@str+1
  7952     07A8  3090               	movlw	144
  7953     07A9  00F8               	movwf	clcd_print@addr
  7954     07AA  160A  118A  254A  120A  118A  	fcall	_clcd_print
  7955     07AF                     l3446:
  7956                           
  7957                           ;WASHING_MACH_func.c: 30:     for(unsigned char i=0;i<16;i++){
  7958     07AF  1283               	bcf	3,5	;RP0=0, select bank0
  7959     07B0  1303               	bcf	3,6	;RP1=0, select bank0
  7960     07B1  01A6               	clrf	powering_on@i_173
  7961     07B2                     l3452:
  7962                           
  7963                           ;WASHING_MACH_func.c: 31:         clcd_putch(0xFF,(0xD0 + i));
  7964     07B2  0826               	movf	powering_on@i_173,w
  7965     07B3  3ED0               	addlw	208
  7966     07B4  00A0               	movwf	clcd_putch@addr
  7967     07B5  30FF               	movlw	255
  7968     07B6  160A  118A  24C8  120A  118A  	fcall	_clcd_putch
  7969     07BB                     l3454:
  7970                           
  7971                           ;WASHING_MACH_func.c: 32:         _delay((unsigned long)((100)*(20000000/4000.0)));
  7972     07BB  3003               	movlw	3
  7973     07BC  1283               	bcf	3,5	;RP0=0, select bank0
  7974     07BD  1303               	bcf	3,6	;RP1=0, select bank0
  7975     07BE  00A4               	movwf	??_powering_on+2
  7976     07BF  308A               	movlw	138
  7977     07C0  00A3               	movwf	??_powering_on+1
  7978     07C1  3055               	movlw	85
  7979     07C2  00A2               	movwf	??_powering_on
  7980     07C3                     u4757:
  7981     07C3  0BA2               	decfsz	??_powering_on,f
  7982     07C4  2FC3               	goto	u4757
  7983     07C5  0BA3               	decfsz	??_powering_on+1,f
  7984     07C6  2FC3               	goto	u4757
  7985     07C7  0BA4               	decfsz	??_powering_on+2,f
  7986     07C8  2FC3               	goto	u4757
  7987     07C9                     l3456:
  7988                           
  7989                           ;WASHING_MACH_func.c: 33:     }
  7990     07C9  3001               	movlw	1
  7991     07CA  1283               	bcf	3,5	;RP0=0, select bank0
  7992     07CB  1303               	bcf	3,6	;RP1=0, select bank0
  7993     07CC  07A6               	addwf	powering_on@i_173,f
  7994     07CD                     l3458:
  7995     07CD  3010               	movlw	16
  7996     07CE  0226               	subwf	powering_on@i_173,w
  7997     07CF  1C03               	skipc
  7998     07D0  2FD2               	goto	u4351
  7999     07D1  2FD3               	goto	u4350
  8000     07D2                     u4351:
  8001     07D2  2FB2               	goto	l3452
  8002     07D3                     u4350:
  8003     07D3                     l3460:
  8004                           
  8005                           ;WASHING_MACH_func.c: 34:     _delay((unsigned long)((2000)*(20000000/4000.0)));
  8006     07D3  3033               	movlw	51
  8007     07D4  1283               	bcf	3,5	;RP0=0, select bank0
  8008     07D5  1303               	bcf	3,6	;RP1=0, select bank0
  8009     07D6  00A4               	movwf	??_powering_on+2
  8010     07D7  30BB               	movlw	187
  8011     07D8  00A3               	movwf	??_powering_on+1
  8012     07D9  30DF               	movlw	223
  8013     07DA  00A2               	movwf	??_powering_on
  8014     07DB                     u4767:
  8015     07DB  0BA2               	decfsz	??_powering_on,f
  8016     07DC  2FDB               	goto	u4767
  8017     07DD  0BA3               	decfsz	??_powering_on+1,f
  8018     07DE  2FDB               	goto	u4767
  8019     07DF  0BA4               	decfsz	??_powering_on+2,f
  8020     07E0  2FDB               	goto	u4767
  8021     07E1                     l163:
  8022     07E1  0008               	return
  8023     07E2                     __end_of_powering_on:
  8024                           
  8025                           	psect	text19
  8026     14C8                     __ptext19:	
  8027 ;; *************** function _clcd_putch *****************
  8028 ;; Defined at:
  8029 ;;		line 49 in file "../8-BitDriver.X/clcd.c"
  8030 ;; Parameters:    Size  Location     Type
  8031 ;;  data            1    wreg     const unsigned char 
  8032 ;;  addr            1    0[BANK0 ] unsigned char 
  8033 ;; Auto vars:     Size  Location     Type
  8034 ;;  data            1    1[BANK0 ] const unsigned char 
  8035 ;; Return value:  Size  Location     Type
  8036 ;;                  1    wreg      void 
  8037 ;; Registers used:
  8038 ;;		wreg, status,2, status,0, pclath, cstack
  8039 ;; Tracked objects:
  8040 ;;		On entry : 0/0
  8041 ;;		On exit  : 0/0
  8042 ;;		Unchanged: 0/0
  8043 ;; Data sizes:     COMMON   BANK0   BANK1   BANK3   BANK2
  8044 ;;      Params:         0       1       0       0       0
  8045 ;;      Locals:         0       1       0       0       0
  8046 ;;      Temps:          0       0       0       0       0
  8047 ;;      Totals:         0       2       0       0       0
  8048 ;;Total ram usage:        2 bytes
  8049 ;; Hardware stack levels used: 1
  8050 ;; Hardware stack levels required when called: 2
  8051 ;; This function calls:
  8052 ;;		_clcd_write
  8053 ;; This function is called by:
  8054 ;;		_powering_on
  8055 ;;		_washing_program_displaying
  8056 ;;		_water_lvl_screen_display
  8057 ;;		_run_program
  8058 ;; This function uses a non-reentrant model
  8059 ;;
  8060                           
  8061     14C8                     _clcd_putch:	
  8062                           ;psect for function _clcd_putch
  8063                           
  8064                           
  8065                           ;incstack = 0
  8066                           ; Regs used in _clcd_putch: [wreg+status,2+status,0+pclath+cstack]
  8067                           ;clcd_putch@data stored from wreg
  8068     14C8  1283               	bcf	3,5	;RP0=0, select bank0
  8069     14C9  1303               	bcf	3,6	;RP1=0, select bank0
  8070     14CA  00A1               	movwf	clcd_putch@data
  8071     14CB                     l3246:
  8072                           
  8073                           ;../8-BitDriver.X/clcd.c: 49: void clcd_putch(const char data, unsigned char addr);../8-
      +                          BitDriver.X/clcd.c: 50: {;../8-BitDriver.X/clcd.c: 51:     clcd_write(addr, 0);
  8074     14CB  01F2               	clrf	clcd_write@mode
  8075     14CC  0820               	movf	clcd_putch@addr,w
  8076     14CD  160A  118A  24DD  160A  118A  	fcall	_clcd_write
  8077                           
  8078                           ;../8-BitDriver.X/clcd.c: 52:     clcd_write(data, 1);
  8079     14D2  01F2               	clrf	clcd_write@mode
  8080     14D3  0AF2               	incf	clcd_write@mode,f
  8081     14D4  1283               	bcf	3,5	;RP0=0, select bank0
  8082     14D5  1303               	bcf	3,6	;RP1=0, select bank0
  8083     14D6  0821               	movf	clcd_putch@data,w
  8084     14D7  160A  118A  24DD  160A  118A  	fcall	_clcd_write
  8085     14DC                     l104:
  8086     14DC  0008               	return
  8087     14DD                     __end_of_clcd_putch:
  8088                           
  8089                           	psect	text20
  8090     154A                     __ptext20:	
  8091 ;; *************** function _clcd_print *****************
  8092 ;; Defined at:
  8093 ;;		line 55 in file "../8-BitDriver.X/clcd.c"
  8094 ;; Parameters:    Size  Location     Type
  8095 ;;  str             2    6[COMMON] PTR const unsigned char 
  8096 ;;		 -> STR_49(10), STR_48(10), STR_47(6), STR_46(10), 
  8097 ;;		 -> STR_45(16), STR_44(16), STR_43(15), STR_42(8), 
  8098 ;;		 -> STR_41(6), STR_40(6), STR_39(6), STR_38(6), 
  8099 ;;		 -> STR_37(6), STR_36(6), STR_35(6), STR_34(6), 
  8100 ;;		 -> STR_33(10), STR_32(10), STR_31(6), STR_30(10), 
  8101 ;;		 -> STR_29(6), STR_28(6), STR_27(13), STR_26(17), 
  8102 ;;		 -> STR_25(17), STR_24(12), STR_23(4), STR_22(5), 
  8103 ;;		 -> STR_21(7), STR_20(4), STR_19(5), STR_18(11), 
  8104 ;;		 -> STR_17(10), STR_16(9), STR_15(10), STR_14(11), 
  8105 ;;		 -> STR_13(8), STR_12(11), STR_11(11), STR_10(7), 
  8106 ;;		 -> STR_9(10), STR_8(6), STR_7(6), STR_6(14), 
  8107 ;;		 -> STR_5(10), STR_4(11), STR_3(17), STR_2(13), 
  8108 ;;		 -> STR_1(13), 
  8109 ;;  addr            1    8[COMMON] unsigned char 
  8110 ;; Auto vars:     Size  Location     Type
  8111 ;;		None
  8112 ;; Return value:  Size  Location     Type
  8113 ;;                  1    wreg      void 
  8114 ;; Registers used:
  8115 ;;		wreg, fsr0l, fsr0h, status,2, status,0, btemp+1, pclath, cstack
  8116 ;; Tracked objects:
  8117 ;;		On entry : 0/0
  8118 ;;		On exit  : 0/0
  8119 ;;		Unchanged: 0/0
  8120 ;; Data sizes:     COMMON   BANK0   BANK1   BANK3   BANK2
  8121 ;;      Params:         3       0       0       0       0
  8122 ;;      Locals:         0       0       0       0       0
  8123 ;;      Temps:          0       0       0       0       0
  8124 ;;      Totals:         3       0       0       0       0
  8125 ;;Total ram usage:        3 bytes
  8126 ;; Hardware stack levels used: 1
  8127 ;; Hardware stack levels required when called: 2
  8128 ;; This function calls:
  8129 ;;		_clcd_write
  8130 ;; This function is called by:
  8131 ;;		_main
  8132 ;;		_powering_on
  8133 ;;		_washing_program_displaying
  8134 ;;		_water_lvl_screen_display
  8135 ;;		_run_program
  8136 ;;		_door_status_check
  8137 ;; This function uses a non-reentrant model
  8138 ;;
  8139                           
  8140     154A                     _clcd_print:	
  8141                           ;psect for function _clcd_print
  8142                           
  8143     154A                     l3192:	
  8144                           ;incstack = 0
  8145                           ; Regs used in _clcd_print: [wreg-fsr0h+status,2+status,0+btemp+1+pclath+cstack]
  8146                           
  8147                           
  8148                           ;../8-BitDriver.X/clcd.c: 55: void clcd_print(const char *str, unsigned char addr);../8-
      +                          BitDriver.X/clcd.c: 56: {;../8-BitDriver.X/clcd.c: 57:     clcd_write(addr, 0);
  8149     154A  01F2               	clrf	clcd_write@mode
  8150     154B  0878               	movf	clcd_print@addr,w
  8151     154C  160A  118A  24DD  160A  118A  	fcall	_clcd_write
  8152                           
  8153                           ;../8-BitDriver.X/clcd.c: 59:     while (*str != '\0')
  8154     1551  2D68               	goto	l3198
  8155     1552                     l3194:
  8156                           
  8157                           ;../8-BitDriver.X/clcd.c: 60:     {;../8-BitDriver.X/clcd.c: 61:         clcd_write(*str
      +                          , 1);
  8158     1552  01F2               	clrf	clcd_write@mode
  8159     1553  0AF2               	incf	clcd_write@mode,f
  8160     1554  0877               	movf	clcd_print@str+1,w
  8161     1555  00FF               	movwf	btemp+1
  8162     1556  0876               	movf	clcd_print@str,w
  8163     1557  0084               	movwf	4
  8164     1558  160A  118A  2189  160A  118A  	fcall	stringtab
  8165     155D  160A  118A  24DD  160A  118A  	fcall	_clcd_write
  8166     1562                     l3196:
  8167                           
  8168                           ;../8-BitDriver.X/clcd.c: 62:         str++;
  8169     1562  3001               	movlw	1
  8170     1563  07F6               	addwf	clcd_print@str,f
  8171     1564  1803               	skipnc
  8172     1565  0AF7               	incf	clcd_print@str+1,f
  8173     1566  3000               	movlw	0
  8174     1567  07F7               	addwf	clcd_print@str+1,f
  8175     1568                     l3198:
  8176                           
  8177                           ;../8-BitDriver.X/clcd.c: 59:     while (*str != '\0')
  8178     1568  0877               	movf	clcd_print@str+1,w
  8179     1569  1283               	bcf	3,5	;RP0=0, select bank0
  8180     156A  1303               	bcf	3,6	;RP1=0, select bank0
  8181     156B  00FF               	movwf	btemp+1
  8182     156C  0876               	movf	clcd_print@str,w
  8183     156D  0084               	movwf	4
  8184     156E  160A  118A  2189  160A  118A  	fcall	stringtab
  8185     1573  3A00               	xorlw	0
  8186     1574  1D03               	skipz
  8187     1575  2D77               	goto	u3911
  8188     1576  2D78               	goto	u3910
  8189     1577                     u3911:
  8190     1577  2D52               	goto	l3194
  8191     1578                     u3910:
  8192     1578                     l110:
  8193     1578  0008               	return
  8194     1579                     __end_of_clcd_print:
  8195                           
  8196                           	psect	text21
  8197     07E2                     __ptext21:	
  8198 ;; *************** function _init_config *****************
  8199 ;; Defined at:
  8200 ;;		line 14 in file "main.c"
  8201 ;; Parameters:    Size  Location     Type
  8202 ;;		None
  8203 ;; Auto vars:     Size  Location     Type
  8204 ;;		None
  8205 ;; Return value:  Size  Location     Type
  8206 ;;                  1    wreg      void 
  8207 ;; Registers used:
  8208 ;;		wreg, status,2, status,0, pclath, cstack
  8209 ;; Tracked objects:
  8210 ;;		On entry : 0/0
  8211 ;;		On exit  : 0/0
  8212 ;;		Unchanged: 0/0
  8213 ;; Data sizes:     COMMON   BANK0   BANK1   BANK3   BANK2
  8214 ;;      Params:         0       0       0       0       0
  8215 ;;      Locals:         0       0       0       0       0
  8216 ;;      Temps:          0       0       0       0       0
  8217 ;;      Totals:         0       0       0       0       0
  8218 ;;Total ram usage:        0 bytes
  8219 ;; Hardware stack levels used: 1
  8220 ;; Hardware stack levels required when called: 4
  8221 ;; This function calls:
  8222 ;;		_init_clcd
  8223 ;;		_init_digital_keypad
  8224 ;;		_init_timer2
  8225 ;; This function is called by:
  8226 ;;		_main
  8227 ;; This function uses a non-reentrant model
  8228 ;;
  8229                           
  8230     07E2                     _init_config:	
  8231                           ;psect for function _init_config
  8232                           
  8233     07E2                     l3410:	
  8234                           ;incstack = 0
  8235                           ; Regs used in _init_config: [wreg+status,2+status,0+pclath+cstack]
  8236                           
  8237                           
  8238                           ;main.c: 16:     RC1 = 0 ;
  8239     07E2  160A  118A  2486  120A  118A  	fcall	_init_clcd
  8240                           
  8241                           ;main.c: 18: 
  8242     07E7  160A  118A  2477  120A  118A  	fcall	_init_digital_keypad
  8243     07EC                     l3412:
  8244                           
  8245                           ;main.c: 20: }
  8246     07EC  160A  118A  247D  120A  118A  	fcall	_init_timer2
  8247     07F1                     l3414:
  8248                           
  8249                           ;main.c: 22: void main(void){
  8250     07F1  178B               	bsf	11,7	;volatile
  8251     07F2                     l3416:
  8252                           
  8253                           ;main.c: 23:     init_config();
  8254     07F2  170B               	bsf	11,6	;volatile
  8255     07F3                     l3418:
  8256                           
  8257                           ;main.c: 24: 
  8258     07F3  1683               	bsf	3,5	;RP0=1, select bank1
  8259     07F4  1303               	bcf	3,6	;RP1=0, select bank1
  8260     07F5  1087               	bcf	7,1	;volatile
  8261     07F6                     l3420:
  8262                           
  8263                           ;main.c: 25:     clcd_print("Press RB4 to",(0x80 + 2));
  8264     07F6  1107               	bcf	7,2	;volatile
  8265     07F7                     l3422:
  8266                           
  8267                           ;main.c: 26:     clcd_print("Power on the",(0xC0 + 2));
  8268     07F7  1283               	bcf	3,5	;RP0=0, select bank0
  8269     07F8  1303               	bcf	3,6	;RP1=0, select bank0
  8270     07F9  1087               	bcf	7,1	;volatile
  8271     07FA                     l3424:
  8272                           
  8273                           ;main.c: 27:     clcd_print("WASHING  MACHINE",(0x90 + 0));
  8274     07FA  1107               	bcf	7,2	;volatile
  8275     07FB                     l49:
  8276     07FB  0008               	return
  8277     07FC                     __end_of_init_config:
  8278                           
  8279                           	psect	text22
  8280     147D                     __ptext22:	
  8281 ;; *************** function _init_timer2 *****************
  8282 ;; Defined at:
  8283 ;;		line 4 in file "timer2.c"
  8284 ;; Parameters:    Size  Location     Type
  8285 ;;		None
  8286 ;; Auto vars:     Size  Location     Type
  8287 ;;		None
  8288 ;; Return value:  Size  Location     Type
  8289 ;;                  1    wreg      void 
  8290 ;; Registers used:
  8291 ;;		None
  8292 ;; Tracked objects:
  8293 ;;		On entry : 0/0
  8294 ;;		On exit  : 0/0
  8295 ;;		Unchanged: 0/0
  8296 ;; Data sizes:     COMMON   BANK0   BANK1   BANK3   BANK2
  8297 ;;      Params:         0       0       0       0       0
  8298 ;;      Locals:         0       0       0       0       0
  8299 ;;      Temps:          0       0       0       0       0
  8300 ;;      Totals:         0       0       0       0       0
  8301 ;;Total ram usage:        0 bytes
  8302 ;; Hardware stack levels used: 1
  8303 ;; Hardware stack levels required when called: 1
  8304 ;; This function calls:
  8305 ;;		Nothing
  8306 ;; This function is called by:
  8307 ;;		_init_config
  8308 ;; This function uses a non-reentrant model
  8309 ;;
  8310                           
  8311     147D                     _init_timer2:	
  8312                           ;psect for function _init_timer2
  8313                           
  8314     147D                     l2310:	
  8315                           ;incstack = 0
  8316                           ; Regs used in _init_timer2: []
  8317                           
  8318                           
  8319                           ;timer2.c: 7:     PR2 = 250;
  8320     147D  30FA               	movlw	250
  8321     147E  1683               	bsf	3,5	;RP0=1, select bank1
  8322     147F  1303               	bcf	3,6	;RP1=0, select bank1
  8323     1480  0092               	movwf	18	;volatile
  8324                           
  8325                           ;timer2.c: 10:     TMR2IE = 1;
  8326     1481  148C               	bsf	12,1	;volatile
  8327                           
  8328                           ;timer2.c: 17:     TMR2ON = 0;
  8329     1482  1283               	bcf	3,5	;RP0=0, select bank0
  8330     1483  1303               	bcf	3,6	;RP1=0, select bank0
  8331     1484  1112               	bcf	18,2	;volatile
  8332     1485                     l368:
  8333     1485  0008               	return
  8334     1486                     __end_of_init_timer2:
  8335                           
  8336                           	psect	text23
  8337     1477                     __ptext23:	
  8338 ;; *************** function _init_digital_keypad *****************
  8339 ;; Defined at:
  8340 ;;		line 4 in file "digital_keypad.c"
  8341 ;; Parameters:    Size  Location     Type
  8342 ;;		None
  8343 ;; Auto vars:     Size  Location     Type
  8344 ;;		None
  8345 ;; Return value:  Size  Location     Type
  8346 ;;                  1    wreg      void 
  8347 ;; Registers used:
  8348 ;;		wreg, status,2
  8349 ;; Tracked objects:
  8350 ;;		On entry : 0/0
  8351 ;;		On exit  : 0/0
  8352 ;;		Unchanged: 0/0
  8353 ;; Data sizes:     COMMON   BANK0   BANK1   BANK3   BANK2
  8354 ;;      Params:         0       0       0       0       0
  8355 ;;      Locals:         0       0       0       0       0
  8356 ;;      Temps:          0       0       0       0       0
  8357 ;;      Totals:         0       0       0       0       0
  8358 ;;Total ram usage:        0 bytes
  8359 ;; Hardware stack levels used: 1
  8360 ;; Hardware stack levels required when called: 1
  8361 ;; This function calls:
  8362 ;;		Nothing
  8363 ;; This function is called by:
  8364 ;;		_init_config
  8365 ;; This function uses a non-reentrant model
  8366 ;;
  8367                           
  8368     1477                     _init_digital_keypad:	
  8369                           ;psect for function _init_digital_keypad
  8370                           
  8371     1477                     l2308:	
  8372                           ;incstack = 0
  8373                           ; Regs used in _init_digital_keypad: [wreg+status,2]
  8374                           
  8375                           
  8376                           ;digital_keypad.c: 7:     TRISB = TRISB | 0x3F;
  8377     1477  1683               	bsf	3,5	;RP0=1, select bank1
  8378     1478  1303               	bcf	3,6	;RP1=0, select bank1
  8379     1479  0806               	movf	6,w	;volatile
  8380     147A  383F               	iorlw	63
  8381     147B  0086               	movwf	6	;volatile
  8382     147C                     l324:
  8383     147C  0008               	return
  8384     147D                     __end_of_init_digital_keypad:
  8385                           
  8386                           	psect	text24
  8387     1486                     __ptext24:	
  8388 ;; *************** function _init_clcd *****************
  8389 ;; Defined at:
  8390 ;;		line 37 in file "../8-BitDriver.X/clcd.c"
  8391 ;; Parameters:    Size  Location     Type
  8392 ;;		None
  8393 ;; Auto vars:     Size  Location     Type
  8394 ;;		None
  8395 ;; Return value:  Size  Location     Type
  8396 ;;                  1    wreg      void 
  8397 ;; Registers used:
  8398 ;;		wreg, status,2, status,0, pclath, cstack
  8399 ;; Tracked objects:
  8400 ;;		On entry : 0/0
  8401 ;;		On exit  : 0/0
  8402 ;;		Unchanged: 0/0
  8403 ;; Data sizes:     COMMON   BANK0   BANK1   BANK3   BANK2
  8404 ;;      Params:         0       0       0       0       0
  8405 ;;      Locals:         0       0       0       0       0
  8406 ;;      Temps:          0       0       0       0       0
  8407 ;;      Totals:         0       0       0       0       0
  8408 ;;Total ram usage:        0 bytes
  8409 ;; Hardware stack levels used: 1
  8410 ;; Hardware stack levels required when called: 3
  8411 ;; This function calls:
  8412 ;;		_init_display_controller
  8413 ;; This function is called by:
  8414 ;;		_init_config
  8415 ;; This function uses a non-reentrant model
  8416 ;;
  8417                           
  8418     1486                     _init_clcd:	
  8419                           ;psect for function _init_clcd
  8420                           
  8421     1486                     l3238:	
  8422                           ;incstack = 0
  8423                           ; Regs used in _init_clcd: [wreg+status,2+status,0+pclath+cstack]
  8424                           
  8425                           
  8426                           ;../8-BitDriver.X/clcd.c: 40:     TRISD = 0x00;
  8427     1486  1683               	bsf	3,5	;RP0=1, select bank1
  8428     1487  1303               	bcf	3,6	;RP1=0, select bank1
  8429     1488  0188               	clrf	8	;volatile
  8430     1489                     l3240:
  8431                           
  8432                           ;../8-BitDriver.X/clcd.c: 43:     TRISE2 = 0;
  8433     1489  1109               	bcf	9,2	;volatile
  8434     148A                     l3242:
  8435                           
  8436                           ;../8-BitDriver.X/clcd.c: 44:     TRISE1 = 0;
  8437     148A  1089               	bcf	9,1	;volatile
  8438     148B                     l3244:
  8439                           
  8440                           ;../8-BitDriver.X/clcd.c: 46:     init_display_controller();
  8441     148B  160A  118A  261A  160A  118A  	fcall	_init_display_controller
  8442     1490                     l101:
  8443     1490  0008               	return
  8444     1491                     __end_of_init_clcd:
  8445                           
  8446                           	psect	text25
  8447     161A                     __ptext25:	
  8448 ;; *************** function _init_display_controller *****************
  8449 ;; Defined at:
  8450 ;;		line 16 in file "../8-BitDriver.X/clcd.c"
  8451 ;; Parameters:    Size  Location     Type
  8452 ;;		None
  8453 ;; Auto vars:     Size  Location     Type
  8454 ;;		None
  8455 ;; Return value:  Size  Location     Type
  8456 ;;                  1    wreg      void 
  8457 ;; Registers used:
  8458 ;;		wreg, status,2, status,0, pclath, cstack
  8459 ;; Tracked objects:
  8460 ;;		On entry : 0/0
  8461 ;;		On exit  : 0/0
  8462 ;;		Unchanged: 0/0
  8463 ;; Data sizes:     COMMON   BANK0   BANK1   BANK3   BANK2
  8464 ;;      Params:         0       0       0       0       0
  8465 ;;      Locals:         0       0       0       0       0
  8466 ;;      Temps:          2       0       0       0       0
  8467 ;;      Totals:         2       0       0       0       0
  8468 ;;Total ram usage:        2 bytes
  8469 ;; Hardware stack levels used: 1
  8470 ;; Hardware stack levels required when called: 2
  8471 ;; This function calls:
  8472 ;;		_clcd_write
  8473 ;; This function is called by:
  8474 ;;		_init_clcd
  8475 ;; This function uses a non-reentrant model
  8476 ;;
  8477                           
  8478     161A                     _init_display_controller:	
  8479                           ;psect for function _init_display_controller
  8480                           
  8481     161A                     l3204:	
  8482                           ;incstack = 0
  8483                           ; Regs used in _init_display_controller: [wreg+status,2+status,0+pclath+cstack]
  8484                           
  8485                           
  8486                           ;../8-BitDriver.X/clcd.c: 19:     _delay((unsigned long)((30)*(20000000/4000.0)));
  8487     161A  30C3               	movlw	195
  8488     161B  00F7               	movwf	??_init_display_controller+1
  8489     161C  30CD               	movlw	205
  8490     161D  00F6               	movwf	??_init_display_controller
  8491     161E                     u4777:
  8492     161E  0BF6               	decfsz	??_init_display_controller,f
  8493     161F  2E1E               	goto	u4777
  8494     1620  0BF7               	decfsz	??_init_display_controller+1,f
  8495     1621  2E1E               	goto	u4777
  8496     1622                     l3206:
  8497                           
  8498                           ;../8-BitDriver.X/clcd.c: 22:     clcd_write(0x33, 0);
  8499     1622  01F2               	clrf	clcd_write@mode
  8500     1623  3033               	movlw	51
  8501     1624  160A  118A  24DD  160A  118A  	fcall	_clcd_write
  8502     1629                     l3208:
  8503                           
  8504                           ;../8-BitDriver.X/clcd.c: 23:     _delay((unsigned long)((4100)*(20000000/4000000.0)));
  8505     1629  301B               	movlw	27
  8506     162A  00F7               	movwf	??_init_display_controller+1
  8507     162B  309E               	movlw	158
  8508     162C  00F6               	movwf	??_init_display_controller
  8509     162D                     u4787:
  8510     162D  0BF6               	decfsz	??_init_display_controller,f
  8511     162E  2E2D               	goto	u4787
  8512     162F  0BF7               	decfsz	??_init_display_controller+1,f
  8513     1630  2E2D               	goto	u4787
  8514     1631  0000               	nop
  8515                           
  8516                           ;../8-BitDriver.X/clcd.c: 24:     clcd_write(0x33, 0);
  8517     1632  01F2               	clrf	clcd_write@mode
  8518     1633  3033               	movlw	51
  8519     1634  160A  118A  24DD  160A  118A  	fcall	_clcd_write
  8520     1639                     l3210:
  8521                           
  8522                           ;../8-BitDriver.X/clcd.c: 25:     _delay((unsigned long)((100)*(20000000/4000000.0)));
  8523     1639  30A6               	movlw	166
  8524     163A  00F6               	movwf	??_init_display_controller
  8525     163B                     u4797:
  8526     163B  0BF6               	decfsz	??_init_display_controller,f
  8527     163C  2E3B               	goto	u4797
  8528     163D  0000               	nop
  8529     163E                     l3212:
  8530                           
  8531                           ;../8-BitDriver.X/clcd.c: 26:     clcd_write(0x33, 0);
  8532     163E  01F2               	clrf	clcd_write@mode
  8533     163F  3033               	movlw	51
  8534     1640  160A  118A  24DD  160A  118A  	fcall	_clcd_write
  8535     1645                     l3214:
  8536                           
  8537                           ;../8-BitDriver.X/clcd.c: 27:     _delay((unsigned long)((1)*(20000000/4000000.0)));
  8538     1645  2E46               	nop2	;2 cycle nop
  8539     1646  2E47               	nop2	;2 cycle nop
  8540     1647  0000               	nop
  8541     1648                     l3216:
  8542                           
  8543                           ;../8-BitDriver.X/clcd.c: 29:     clcd_write(0x3C, 0);
  8544     1648  01F2               	clrf	clcd_write@mode
  8545     1649  303C               	movlw	60
  8546     164A  160A  118A  24DD  160A  118A  	fcall	_clcd_write
  8547     164F                     l3218:
  8548                           
  8549                           ;../8-BitDriver.X/clcd.c: 30:     _delay((unsigned long)((100)*(20000000/4000000.0)));
  8550     164F  30A6               	movlw	166
  8551     1650  00F6               	movwf	??_init_display_controller
  8552     1651                     u4807:
  8553     1651  0BF6               	decfsz	??_init_display_controller,f
  8554     1652  2E51               	goto	u4807
  8555     1653  0000               	nop
  8556                           
  8557                           ;../8-BitDriver.X/clcd.c: 31:     clcd_write(0x01, 0);
  8558     1654  01F2               	clrf	clcd_write@mode
  8559     1655  3001               	movlw	1
  8560     1656  160A  118A  24DD  160A  118A  	fcall	_clcd_write
  8561     165B                     l3220:
  8562                           
  8563                           ;../8-BitDriver.X/clcd.c: 32:     _delay((unsigned long)((500)*(20000000/4000000.0)));
  8564     165B  3004               	movlw	4
  8565     165C  00F7               	movwf	??_init_display_controller+1
  8566     165D  303D               	movlw	61
  8567     165E  00F6               	movwf	??_init_display_controller
  8568     165F                     u4817:
  8569     165F  0BF6               	decfsz	??_init_display_controller,f
  8570     1660  2E5F               	goto	u4817
  8571     1661  0BF7               	decfsz	??_init_display_controller+1,f
  8572     1662  2E5F               	goto	u4817
  8573     1663  2E64               	nop2
  8574     1664                     l3222:
  8575                           
  8576                           ;../8-BitDriver.X/clcd.c: 33:     clcd_write(0x0C, 0);
  8577     1664  01F2               	clrf	clcd_write@mode
  8578     1665  300C               	movlw	12
  8579     1666  160A  118A  24DD  160A  118A  	fcall	_clcd_write
  8580                           
  8581                           ;../8-BitDriver.X/clcd.c: 34:     _delay((unsigned long)((100)*(20000000/4000000.0)));
  8582     166B  30A6               	movlw	166
  8583     166C  00F6               	movwf	??_init_display_controller
  8584     166D                     u4827:
  8585     166D  0BF6               	decfsz	??_init_display_controller,f
  8586     166E  2E6D               	goto	u4827
  8587     166F  0000               	nop
  8588     1670                     l98:
  8589     1670  0008               	return
  8590     1671                     __end_of_init_display_controller:
  8591                           
  8592                           	psect	text26
  8593     14DD                     __ptext26:	
  8594 ;; *************** function _clcd_write *****************
  8595 ;; Defined at:
  8596 ;;		line 4 in file "../8-BitDriver.X/clcd.c"
  8597 ;; Parameters:    Size  Location     Type
  8598 ;;  byte            1    wreg     unsigned char 
  8599 ;;  mode            1    2[COMMON] unsigned char 
  8600 ;; Auto vars:     Size  Location     Type
  8601 ;;  byte            1    5[COMMON] unsigned char 
  8602 ;; Return value:  Size  Location     Type
  8603 ;;                  1    wreg      void 
  8604 ;; Registers used:
  8605 ;;		wreg
  8606 ;; Tracked objects:
  8607 ;;		On entry : 0/0
  8608 ;;		On exit  : 0/0
  8609 ;;		Unchanged: 0/0
  8610 ;; Data sizes:     COMMON   BANK0   BANK1   BANK3   BANK2
  8611 ;;      Params:         1       0       0       0       0
  8612 ;;      Locals:         1       0       0       0       0
  8613 ;;      Temps:          2       0       0       0       0
  8614 ;;      Totals:         4       0       0       0       0
  8615 ;;Total ram usage:        4 bytes
  8616 ;; Hardware stack levels used: 1
  8617 ;; Hardware stack levels required when called: 1
  8618 ;; This function calls:
  8619 ;;		Nothing
  8620 ;; This function is called by:
  8621 ;;		_init_display_controller
  8622 ;;		_clcd_putch
  8623 ;;		_clcd_print
  8624 ;;		_clear_screen
  8625 ;; This function uses a non-reentrant model
  8626 ;;
  8627                           
  8628     14DD                     _clcd_write:	
  8629                           ;psect for function _clcd_write
  8630                           
  8631                           
  8632                           ;incstack = 0
  8633                           ; Regs used in _clcd_write: [wreg]
  8634                           ;clcd_write@byte stored from wreg
  8635     14DD  00F5               	movwf	clcd_write@byte
  8636     14DE                     l3184:
  8637                           
  8638                           ;../8-BitDriver.X/clcd.c: 4: void clcd_write(unsigned char byte, unsigned char mode);../
      +                          8-BitDriver.X/clcd.c: 5: {;../8-BitDriver.X/clcd.c: 6:     RE2 = mode & 0x01;
  8639     14DE  1872               	btfsc	clcd_write@mode,0
  8640     14DF  2CE1               	goto	u3891
  8641     14E0  2CE5               	goto	u3890
  8642     14E1                     u3891:
  8643     14E1  1283               	bcf	3,5	;RP0=0, select bank0
  8644     14E2  1303               	bcf	3,6	;RP1=0, select bank0
  8645     14E3  1509               	bsf	9,2	;volatile
  8646     14E4  2CE8               	goto	u3904
  8647     14E5                     u3890:
  8648     14E5  1283               	bcf	3,5	;RP0=0, select bank0
  8649     14E6  1303               	bcf	3,6	;RP1=0, select bank0
  8650     14E7  1109               	bcf	9,2	;volatile
  8651     14E8                     u3904:
  8652     14E8                     l3186:
  8653                           
  8654                           ;../8-BitDriver.X/clcd.c: 7:     PORTD = byte;
  8655     14E8  0875               	movf	clcd_write@byte,w
  8656     14E9  0088               	movwf	8	;volatile
  8657     14EA                     l3188:
  8658                           
  8659                           ;../8-BitDriver.X/clcd.c: 9:     RE1 = 1;
  8660     14EA  1489               	bsf	9,1	;volatile
  8661                           
  8662                           ;../8-BitDriver.X/clcd.c: 10:     _delay((unsigned long)((100)*(20000000/4000000.0)));
  8663     14EB  30A6               	movlw	166
  8664     14EC  00F3               	movwf	??_clcd_write
  8665     14ED                     u4837:
  8666     14ED  0BF3               	decfsz	??_clcd_write,f
  8667     14EE  2CED               	goto	u4837
  8668     14EF  0000               	nop
  8669     14F0                     l3190:
  8670                           
  8671                           ;../8-BitDriver.X/clcd.c: 11:     RE1 = 0;
  8672     14F0  1283               	bcf	3,5	;RP0=0, select bank0
  8673     14F1  1303               	bcf	3,6	;RP1=0, select bank0
  8674     14F2  1089               	bcf	9,1	;volatile
  8675                           
  8676                           ;../8-BitDriver.X/clcd.c: 13:     _delay((unsigned long)((4100)*(20000000/4000000.0)));
  8677     14F3  301B               	movlw	27
  8678     14F4  00F4               	movwf	??_clcd_write+1
  8679     14F5  309E               	movlw	158
  8680     14F6  00F3               	movwf	??_clcd_write
  8681     14F7                     u4847:
  8682     14F7  0BF3               	decfsz	??_clcd_write,f
  8683     14F8  2CF7               	goto	u4847
  8684     14F9  0BF4               	decfsz	??_clcd_write+1,f
  8685     14FA  2CF7               	goto	u4847
  8686     14FB  0000               	nop
  8687     14FC                     l95:
  8688     14FC  0008               	return
  8689     14FD                     __end_of_clcd_write:
  8690                           
  8691                           	psect	text27
  8692     1579                     __ptext27:	
  8693 ;; *************** function _isr *****************
  8694 ;; Defined at:
  8695 ;;		line 6 in file "isr.c"
  8696 ;; Parameters:    Size  Location     Type
  8697 ;;		None
  8698 ;; Auto vars:     Size  Location     Type
  8699 ;;		None
  8700 ;; Return value:  Size  Location     Type
  8701 ;;                  1    wreg      void 
  8702 ;; Registers used:
  8703 ;;		wreg, status,2, status,0
  8704 ;; Tracked objects:
  8705 ;;		On entry : 0/0
  8706 ;;		On exit  : 0/0
  8707 ;;		Unchanged: 0/0
  8708 ;; Data sizes:     COMMON   BANK0   BANK1   BANK3   BANK2
  8709 ;;      Params:         0       0       0       0       0
  8710 ;;      Locals:         0       0       0       0       0
  8711 ;;      Temps:          2       0       0       0       0
  8712 ;;      Totals:         2       0       0       0       0
  8713 ;;Total ram usage:        2 bytes
  8714 ;; Hardware stack levels used: 1
  8715 ;; This function calls:
  8716 ;;		Nothing
  8717 ;; This function is called by:
  8718 ;;		Interrupt level 1
  8719 ;; This function uses a non-reentrant model
  8720 ;;
  8721                           
  8722     1579                     _isr:	
  8723                           ;psect for function _isr
  8724                           
  8725     1579                     i1l3164:
  8726                           
  8727                           ;isr.c: 8:     if(TMR2IF ==1)
  8728     1579  1283               	bcf	3,5	;RP0=0, select bank0
  8729     157A  1303               	bcf	3,6	;RP1=0, select bank0
  8730     157B  1C8C               	btfss	12,1	;volatile
  8731     157C  2D7E               	goto	u384_21
  8732     157D  2D7F               	goto	u384_20
  8733     157E                     u384_21:
  8734     157E  2DBF               	goto	i1l359
  8735     157F                     u384_20:
  8736     157F                     i1l3166:
  8737                           
  8738                           ;isr.c: 9:     {;isr.c: 10:         if( ++count == 20000)
  8739     157F  3001               	movlw	1
  8740     1580  1683               	bsf	3,5	;RP0=1, select bank1
  8741     1581  1303               	bcf	3,6	;RP1=0, select bank1
  8742     1582  07C2               	addwf	_count^(0+128),f
  8743     1583  3000               	movlw	0
  8744     1584  1803               	skipnc
  8745     1585  3001               	movlw	1
  8746     1586  07C3               	addwf	(_count+1)^(0+128),f
  8747     1587  3000               	movlw	0
  8748     1588  1803               	skipnc
  8749     1589  3001               	movlw	1
  8750     158A  07C4               	addwf	(_count+2)^(0+128),f
  8751     158B  3000               	movlw	0
  8752     158C  1803               	skipnc
  8753     158D  3001               	movlw	1
  8754     158E  07C5               	addwf	(_count+3)^(0+128),f
  8755     158F  3020               	movlw	32
  8756     1590  0642               	xorwf	_count^(0+128),w
  8757     1591  304E               	movlw	78
  8758     1592  1903               	skipnz
  8759     1593  0643               	xorwf	(_count+1)^(0+128),w
  8760     1594  0444               	iorwf	(_count+2)^(0+128),w
  8761     1595  0445               	iorwf	(_count+3)^(0+128),w
  8762     1596  1D03               	btfss	3,2
  8763     1597  2D99               	goto	u385_21
  8764     1598  2D9A               	goto	u385_20
  8765     1599                     u385_21:
  8766     1599  2DBC               	goto	i1l3182
  8767     159A                     u385_20:
  8768     159A                     i1l3168:
  8769                           
  8770                           ;isr.c: 11:         {;isr.c: 12:             if(sec != 0){
  8771     159A  1283               	bcf	3,5	;RP0=0, select bank0
  8772     159B  1303               	bcf	3,6	;RP1=0, select bank0
  8773     159C  086A               	movf	_sec,w
  8774     159D  1903               	btfsc	3,2
  8775     159E  2DA0               	goto	u386_21
  8776     159F  2DA1               	goto	u386_20
  8777     15A0                     u386_21:
  8778     15A0  2DA4               	goto	i1l3172
  8779     15A1                     u386_20:
  8780     15A1                     i1l3170:
  8781                           
  8782                           ;isr.c: 13:               sec--;
  8783     15A1  3001               	movlw	1
  8784     15A2  02EA               	subwf	_sec,f
  8785                           
  8786                           ;isr.c: 14:             }
  8787     15A3  2DB2               	goto	i1l3180
  8788     15A4                     i1l3172:
  8789     15A4  086A               	movf	_sec,w
  8790     15A5  1D03               	btfss	3,2
  8791     15A6  2DA8               	goto	u387_21
  8792     15A7  2DA9               	goto	u387_20
  8793     15A8                     u387_21:
  8794     15A8  2DB2               	goto	i1l3180
  8795     15A9                     u387_20:
  8796     15A9                     i1l3174:
  8797     15A9  0869               	movf	_min,w
  8798     15AA  1903               	btfsc	3,2
  8799     15AB  2DAD               	goto	u388_21
  8800     15AC  2DAE               	goto	u388_20
  8801     15AD                     u388_21:
  8802     15AD  2DB2               	goto	i1l3180
  8803     15AE                     u388_20:
  8804     15AE                     i1l3176:
  8805                           
  8806                           ;isr.c: 16:                 min --;
  8807     15AE  3001               	movlw	1
  8808     15AF  02E9               	subwf	_min,f
  8809     15B0                     i1l3178:
  8810                           
  8811                           ;isr.c: 17:                 sec = 60;
  8812     15B0  303C               	movlw	60
  8813     15B1  00EA               	movwf	_sec
  8814     15B2                     i1l3180:
  8815                           
  8816                           ;isr.c: 19:             count = 0;
  8817     15B2  3000               	movlw	0
  8818     15B3  1683               	bsf	3,5	;RP0=1, select bank1
  8819     15B4  1303               	bcf	3,6	;RP1=0, select bank1
  8820     15B5  00C5               	movwf	(_count+3)^(0+128)
  8821     15B6  3000               	movlw	0
  8822     15B7  00C4               	movwf	(_count+2)^(0+128)
  8823     15B8  3000               	movlw	0
  8824     15B9  00C3               	movwf	(_count+1)^(0+128)
  8825     15BA  3000               	movlw	0
  8826     15BB  00C2               	movwf	_count^(0+128)
  8827     15BC                     i1l3182:
  8828                           
  8829                           ;isr.c: 23:         TMR2IF = 0;
  8830     15BC  1283               	bcf	3,5	;RP0=0, select bank0
  8831     15BD  1303               	bcf	3,6	;RP1=0, select bank0
  8832     15BE  108C               	bcf	12,1	;volatile
  8833     15BF                     i1l359:
  8834     15BF  0871               	movf	??_isr+1,w
  8835     15C0  008A               	movwf	10
  8836     15C1  0E70               	swapf	??_isr,w
  8837     15C2  0083               	movwf	3
  8838     15C3  0EFE               	swapf	btemp,f
  8839     15C4  0E7E               	swapf	btemp,w
  8840     15C5  0009               	retfie
  8841     15C6                     __end_of_isr:
  8842     0002                     ___latbits      equ	2
  8843     007E                     btemp           set	126	;btemp
  8844     007E                     wtemp0          set	126
  8845                           
  8846                           	psect	intentry
  8847     0004                     __pintentry:	
  8848                           ;incstack = 0
  8849                           ; Regs used in _isr: [wreg+status,2+status,0]
  8850                           
  8851     0004                     interrupt_function:
  8852     007E                     saved_w         set	btemp
  8853     0004  00FE               	movwf	btemp
  8854     0005  0E03               	swapf	3,w
  8855     0006  00F0               	movwf	??_isr
  8856     0007  080A               	movf	10,w
  8857     0008  00F1               	movwf	??_isr+1
  8858     0009  160A  118A  2D79   	ljmp	_isr
  8859                           
  8860                           	psect	config
  8861                           
  8862                           ;Config register CONFIG @ 0x2007
  8863                           ;	Oscillator Selection bits
  8864                           ;	FOSC = 0x3, unprogrammed default
  8865                           ;	Watchdog Timer Enable bit
  8866                           ;	WDTE = OFF, WDT disabled
  8867                           ;	Power-up Timer Enable bit
  8868                           ;	PWRTE = 0x1, unprogrammed default
  8869                           ;	Brown-out Reset Enable bit
  8870                           ;	BOREN = 0x1, unprogrammed default
  8871                           ;	Low-Voltage (Single-Supply) In-Circuit Serial Programming Enable bit
  8872                           ;	LVP = 0x1, unprogrammed default
  8873                           ;	Data EEPROM Memory Code Protection bit
  8874                           ;	CPD = 0x1, unprogrammed default
  8875                           ;	Flash Program Memory Write Enable bits
  8876                           ;	WRT = 0x3, unprogrammed default
  8877                           ;	In-Circuit Debugger Mode bit
  8878                           ;	DEBUG = 0x1, unprogrammed default
  8879                           ;	Flash Program Memory Code Protection bit
  8880                           ;	CP = 0x1, unprogrammed default
  8881     2007                     	org	8199
  8882     2007  3FFB               	dw	16379

Data Sizes:
    Strings     393
    Constant    0
    Data        38
    BSS         15
    Persistent  0
    Stack       0

Auto Spaces:
    Space          Size  Autos    Used
    COMMON           14     10      12
    BANK0            80     70      80
    BANK1            80      0      41
    BANK3            96      0       0
    BANK2            96      0       0

Pointer List with Targets:

    clcd_print@str	PTR const unsigned char  size(2) Largest target is 17
		 -> STR_1(CODE[13]), STR_10(CODE[7]), STR_11(CODE[11]), STR_12(CODE[11]), 
		 -> STR_13(CODE[8]), STR_14(CODE[11]), STR_15(CODE[10]), STR_16(CODE[9]), 
		 -> STR_17(CODE[10]), STR_18(CODE[11]), STR_19(CODE[5]), STR_2(CODE[13]), 
		 -> STR_20(CODE[4]), STR_21(CODE[7]), STR_22(CODE[5]), STR_23(CODE[4]), 
		 -> STR_24(CODE[12]), STR_25(CODE[17]), STR_26(CODE[17]), STR_27(CODE[13]), 
		 -> STR_28(CODE[6]), STR_29(CODE[6]), STR_3(CODE[17]), STR_30(CODE[10]), 
		 -> STR_31(CODE[6]), STR_32(CODE[10]), STR_33(CODE[10]), STR_34(CODE[6]), 
		 -> STR_35(CODE[6]), STR_36(CODE[6]), STR_37(CODE[6]), STR_38(CODE[6]), 
		 -> STR_39(CODE[6]), STR_4(CODE[11]), STR_40(CODE[6]), STR_41(CODE[6]), 
		 -> STR_42(CODE[8]), STR_43(CODE[15]), STR_44(CODE[16]), STR_45(CODE[16]), 
		 -> STR_46(CODE[10]), STR_47(CODE[6]), STR_48(CODE[10]), STR_49(CODE[10]), 
		 -> STR_5(CODE[10]), STR_6(CODE[14]), STR_7(CODE[6]), STR_8(CODE[6]), 
		 -> STR_9(CODE[10]), 

    washing_programs	PTR unsigned char [12] size(2) Largest target is 11
		 -> STR_10(CODE[7]), STR_11(CODE[11]), STR_12(CODE[11]), STR_13(CODE[8]), 
		 -> STR_14(CODE[11]), STR_15(CODE[10]), STR_16(CODE[9]), STR_17(CODE[10]), 
		 -> STR_18(CODE[11]), STR_7(CODE[6]), STR_8(CODE[6]), STR_9(CODE[10]), 

    water_level	PTR unsigned char [5] size(2) Largest target is 7
		 -> STR_19(CODE[5]), STR_20(CODE[4]), STR_21(CODE[7]), STR_22(CODE[5]), 
		 -> STR_23(CODE[4]), 


Critical Paths under _main in COMMON

    _run_program->___awdiv
    _run_program->___xxtofl
    _door_status_check->_clcd_print
    _clear_screen->_clcd_write
    ___fltol->___xxtofl
    ___flsub->___fladd
    ___flsub->___xxtofl
    ___flmul->___xxtofl
    ___flge->___xxtofl
    _clcd_putch->___awdiv
    _clcd_print->_clcd_write
    _init_clcd->_init_display_controller
    _init_display_controller->_clcd_write

Critical Paths under _isr in COMMON

    None.

Critical Paths under _main in BANK0

    _main->_run_program
    _water_lvl_screen_display->_clcd_putch
    _washing_program_displaying->_clcd_putch
    _run_program->___flge
    ___fltol->___flmul
    ___flsub->___flmul
    ___flmul->___xxtofl
    ___flge->___flsub
    _powering_on->_clcd_putch

Critical Paths under _isr in BANK0

    None.

Critical Paths under _main in BANK1

    None.

Critical Paths under _isr in BANK1

    None.

Critical Paths under _main in BANK3

    None.

Critical Paths under _isr in BANK3

    None.

Critical Paths under _main in BANK2

    None.

Critical Paths under _isr in BANK2

    None.

Call Graph Tables:

 ---------------------------------------------------------------------------------
 (Depth) Function   	        Calls       Base Space   Used Autos Params    Refs
 ---------------------------------------------------------------------------------
 (0) _main                                                 5     5      0   11121
                                             65 BANK0      5     5      0
                         _clcd_print
                       _clear_screen
                        _init_config
                        _powering_on
                _read_digital_keypad
                        _run_program
                           _set_time
         _washing_program_displaying
           _water_lvl_screen_display
 ---------------------------------------------------------------------------------
 (1) _water_lvl_screen_display                             3     3      0     908
                                              2 BANK0      3     3      0
                         _clcd_print
                         _clcd_putch
                       _clear_screen
 ---------------------------------------------------------------------------------
 (1) _washing_program_displaying                           3     3      0     908
                                              2 BANK0      3     3      0
                         _clcd_print
                         _clcd_putch
                       _clear_screen
 ---------------------------------------------------------------------------------
 (1) _set_time                                             0     0      0       0
 ---------------------------------------------------------------------------------
 (1) _run_program                                         13    13      0    7498
                                             52 BANK0     13    13      0
                            ___awdiv
                            ___awmod
                             ___bmul
                             ___flge
                            ___flmul
                            ___flsub
                            ___fltol
                           ___xxtofl
                         _clcd_print
                         _clcd_putch
                       _clear_screen
                  _door_status_check
 ---------------------------------------------------------------------------------
 (2) _door_status_check                                    0     0      0     624
                         _clcd_print
                       _clear_screen
 ---------------------------------------------------------------------------------
 (2) _clear_screen                                         2     2      0     111
                                              6 COMMON     2     2      0
                         _clcd_write
 ---------------------------------------------------------------------------------
 (2) ___xxtofl                                            14    10      4     342
                                              2 COMMON     8     4      4
                                              0 BANK0      6     6      0
 ---------------------------------------------------------------------------------
 (2) ___fltol                                             10     6      4     232
                                             32 BANK0     10     6      4
                            ___flmul (ARG)
                           ___xxtofl (ARG)
 ---------------------------------------------------------------------------------
 (2) ___flsub                                              8     0      8    2035
                                             32 BANK0      8     0      8
                            ___fladd
                            ___flmul (ARG)
                           ___xxtofl (ARG)
 ---------------------------------------------------------------------------------
 (3) ___fladd                                             20    12      8    1988
                                              2 COMMON     8     0      8
                                              0 BANK0     12    12      0
 ---------------------------------------------------------------------------------
 (2) ___flmul                                             26    18      8    2452
                                              6 BANK0     26    18      8
                          __Umul8_16
                           ___xxtofl (ARG)
 ---------------------------------------------------------------------------------
 (3) __Umul8_16                                            9     7      2     232
                                              2 COMMON     4     2      2
                                              0 BANK0      5     5      0
 ---------------------------------------------------------------------------------
 (2) ___flge                                              12     4      8     184
                                             40 BANK0     12     4      8
                            ___flmul (ARG)
                            ___flsub (ARG)
                           ___xxtofl (ARG)
 ---------------------------------------------------------------------------------
 (2) ___bmul                                               3     2      1     109
                                              2 COMMON     3     2      1
 ---------------------------------------------------------------------------------
 (2) ___awmod                                              6     2      4     304
                                              2 COMMON     6     2      4
 ---------------------------------------------------------------------------------
 (2) ___awdiv                                              8     4      4     308
                                              2 COMMON     8     4      4
 ---------------------------------------------------------------------------------
 (1) _read_digital_keypad                                  2     2      0      90
                                              2 COMMON     1     1      0
 ---------------------------------------------------------------------------------
 (1) _powering_on                                          5     5      0     948
                                              2 BANK0      5     5      0
                         _clcd_print
                         _clcd_putch
 ---------------------------------------------------------------------------------
 (2) _clcd_putch                                           2     1      1     237
                                              0 BANK0      2     1      1
                            ___awdiv (ARG)
                            ___awmod (ARG)
                         _clcd_write
 ---------------------------------------------------------------------------------
 (2) _clcd_print                                           3     0      3     513
                                              6 COMMON     3     0      3
                         _clcd_write
 ---------------------------------------------------------------------------------
 (1) _init_config                                          0     0      0     111
                          _init_clcd
                _init_digital_keypad
                        _init_timer2
 ---------------------------------------------------------------------------------
 (2) _init_timer2                                          0     0      0       0
 ---------------------------------------------------------------------------------
 (2) _init_digital_keypad                                  0     0      0       0
 ---------------------------------------------------------------------------------
 (2) _init_clcd                                            0     0      0     111
            _init_display_controller
 ---------------------------------------------------------------------------------
 (3) _init_display_controller                              2     2      0     111
                                              6 COMMON     2     2      0
                         _clcd_write
 ---------------------------------------------------------------------------------
 (3) _clcd_write                                           4     3      1     111
                                              2 COMMON     4     3      1
 ---------------------------------------------------------------------------------
 Estimated maximum stack depth 3
 ---------------------------------------------------------------------------------
 (Depth) Function   	        Calls       Base Space   Used Autos Params    Refs
 ---------------------------------------------------------------------------------
 (5) _isr                                                  2     2      0       0
                                              0 COMMON     2     2      0
 ---------------------------------------------------------------------------------
 Estimated maximum stack depth 5
 ---------------------------------------------------------------------------------

 Call Graph Graphs:

 _main (ROOT)
   _clcd_print
     _clcd_write
   _clear_screen
     _clcd_write
   _init_config
     _init_clcd
       _init_display_controller
         _clcd_write
     _init_digital_keypad
     _init_timer2
   _powering_on
     _clcd_print
     _clcd_putch
       ___awdiv (ARG)
       ___awmod (ARG)
       _clcd_write (ARG)
   _read_digital_keypad
   _run_program
     ___awdiv
     ___awmod
     ___bmul
     ___flge
       ___flmul (ARG)
         __Umul8_16
         ___xxtofl (ARG)
       ___flsub (ARG)
         ___fladd
         ___flmul (ARG)
         ___xxtofl (ARG)
       ___xxtofl (ARG)
     ___flmul
     ___flsub
     ___fltol
       ___flmul (ARG)
       ___xxtofl (ARG)
     ___xxtofl
     _clcd_print
     _clcd_putch
     _clear_screen
     _door_status_check
       _clcd_print
       _clear_screen
   _set_time
   _washing_program_displaying
     _clcd_print
     _clcd_putch
     _clear_screen
   _water_lvl_screen_display
     _clcd_print
     _clcd_putch
     _clear_screen

 _isr (ROOT)

Address spaces:
Name               Size   Autos  Total    Usage
BANK3               96      0       0      0.0%
BITBANK3            96      0       0      0.0%
BANK2               96      0       0      0.0%
BITBANK2            96      0       0      0.0%
BANK1               80      0      41     51.2%
BITBANK1            80      0       0      0.0%
BANK0               80     70      80    100.0%
BITBANK0            80      0       0      0.0%
COMMON              14     10      12     85.7%
BITCOMMON           14      0       0      0.0%
DATA                 0      0     135      0.0%
STACK                0      0       0      0.0%


Microchip Technology PIC Macro Assembler V3.00 build 20241204225717 
Symbol Table                                                                                   Tue Jun 24 21:44:48 2025

                                 pc 0002                      ___bmul@product 0073  
                    clcd_print@addr 0078                                  l63 0C1A  
                                l64 0C0B                                  l49 07FB  
                                l69 0C63                                  l95 14FC  
                                l98 1670                        ___awdiv@sign 0077  
                                fsr 0004                 __Umul8_16@word_mpld 0022  
                               l101 1490                                 l110 1578  
                               l104 14DC                                 l220 0CBB  
                               l311 16EC                                 l313 16F2  
                               l314 1726                                 l226 0CD1  
                               l218 0CBB                                 l163 07E1  
                               l307 0420                                 l243 0CFC  
                               l324 147C                                 l260 0D32  
                               l228 0CD1                                 l317 14A1  
                               l253 0D19                                 l174 0A6E  
                               l337 1619                                 l185 0B61  
                               l338 1618                                 l283 0D75  
                               l267 0D47                                 l620 16C7  
                               l286 0DAF                                 l607 1789  
                               l368 1485                                 l480 14B4  
                               l640 08C5                                 l632 0840  
                               l801 1520                                 l635 08AC  
                               l901 0929                                 l750 0DDC  
                               l655 17EA                                 l648 17FF  
                               l761 0E67                                 l658 17FF  
                               l851 0762                                 l755 0E0D  
                               l780 0F76                                 l908 0945  
                               l909 0951                                 l870 1537  
                               l863 0758                                 l759 0E8C  
                               l872 1549                                 l776 0F52  
                               l768 0FFF                                 l857 06D4  
                               l786 0F99                                 l797 0FF5  
                               l789 0FD5                                 l798 0FFF  
                               l895 08EA                                 l896 08FB  
                               l897 097B                                 _GIE 005F  
                               _RB0 0030                                 _RC1 0039  
                               _RC2 003A                                 _RB4 0034  
                               _RE1 0049                                 _RE2 004A  
                               _PR2 0092                                 _key 006D  
                               _min 0069                                 _sec 006A  
                               _isr 1579                      clcd_putch@addr 0020  
                               fsr0 0004                      clcd_putch@data 0021  
                               indf 0000                        ___awmod@sign 0077  
                      ___flmul@aexp 0034                        ___flmul@bexp 0039  
                      ___flmul@sign 0033                        ___flmul@temp 003E  
                      ___flmul@prod 003A                         _run_program 004C  
                      ___fltol@exp1 0049                                l2100 0DC4  
                              l2110 0DDE                                l2102 0DC9  
                              l2200 0EBD                                l2120 0DEF  
                              l2112 0DE0                                l2104 0DD1  
                              l2210 0ED4                                l2202 0EC4  
                              l2130 0E03                                l2122 0DF0  
                              l2114 0DE6                                l2106 0DD2  
                              l2220 0F30                                l2204 0EC6  
                              l2212 0ED7                                l2140 0E1B  
                              l2124 0DF5                                l2132 0E05  
                              l2116 0DE7                                l2108 0DD4  
                              l2310 147D                                l2222 0F35  
                              l2214 0EED                                l2206 0ECA  
                              l2150 0E25                                l2142 0E1D  
                              l2134 0E13                                l2126 0DFA  
                              l2118 0DEB                                l2400 167D  
                              l2240 0F7E                                l2232 0F68  
                              l2216 0F2B                                l2224 0F44  
                              l2208 0ECB                                l2160 0E2F  
                              l2152 0E27                                l2144 0E1F  
                              l2136 0E17                                l2128 0E02  
                              l3200 1491               ??_read_digital_keypad 0072  
                              l3210 1639                                l2410 1696  
                              l2402 1681                                l2250 0F8C  
                              l2242 0F80                                l2234 0F71  
                              l2226 0F5A                                l2218 0F2D  
                              l2170 0E38                                l2162 0E31  
                              l2154 0E29                                l2146 0E21  
                              l2138 0E19                                l2090 0DB4  
                              l3202 1498                                l3220 165B  
                              l3212 163E                                l3204 161A  
                              l2308 1477                                l2420 16B3  
                              l2412 1698                                l2404 1686  
                              l2340 14AA                                l3300 0462  
                              l2260 0FA3                                l2252 0F90  
                              l2244 0F85                                l2236 0F75  
                              l2228 0F5F                                l2180 0E78  
                              l2172 0E4F                                l2164 0E33  
                              l2156 0E2B                                l2148 0E23  
                              l2092 0DB6                                l3222 1664  
                              l3214 1645                                l3206 1622  
                              l2350 1728                                l2414 169C  
                              l2406 168C                                l2422 16B9  
                              l2342 14AC                                l2334 14A3  
                              l2430 0822                                l3230 1531  
                              l3310 047E                                l3302 046A  
                              l2270 0FDF                                l2262 0FB1  
                              l2254 0F96                                l2238 0F7A  
                              l2246 0F87                                l2190 0E95  
                              l2182 0E79                                l2174 0E6B  
                              l2166 0E35                                l2158 0E2D  
                              l2094 0DBA                                l3216 1648  
                              l3208 1629                                l3240 1489  
                              l2360 173C                                l2352 172C  
                              l2424 16BE                                l2416 16A6  
                              l2408 168F                                l2344 14B3  
                              l2336 14A4                                l2440 0884  
                              l2432 0838                                l3232 1540  
                              l3224 1524                                l3400 074E  
                              l3320 04BD                                l3304 046C  
                              l2280 0FF3                                l2272 0FE7  
                              l2264 0FB5                                l2248 0F8B  
                              l2184 0E82                                l2176 0E72  
                              l2168 0E37                                l2096 0DBE  
                              l2088 0DB0                                l3218 164F  
                              l3242 148A                                l3410 07E2  
                              l2370 1750                                l2362 173E  
                              l2354 1731                                l2426 16C3  
                              l2418 16AC                                l2338 14A8  
                              l2442 0888                                l2434 0854  
                              l3234 1545                                l3226 1526  
                              l3402 0752                                l3330 0544  
                              l3322 04D9                                l3314 0487  
                              l3306 0474                                l2282 0FFA  
                              l2274 0FEC                                l2266 0FD3  
                              l2258 0F9E                                l2194 0E9E  
                              l2178 0E74                                l2186 0E84  
                              l2098 0DBF                                l2450 178A  
                              l3250 16CE                                l3244 148B  
                              l3420 07F6                                l3412 07EC  
                              l2700 15D7                                l2380 176E  
                              l2372 1752                                l2364 1740  
                              l2356 1733                                l2348 1727  
                              l2444 08C2                                l2436 085C  
                              l3228 152D                                l3404 0753  
                              l3340 05B1                                l3332 0552  
                              l3324 0503                                l3316 0495  
                              l3308 0479                                l2284 0FFE  
                              l2276 0FED                                l2268 0FDA  
                              l2196 0EB5                                l2188 0E90  
                              l2460 17B2                                l2452 1795  
                              l3260 16FA                                l3252 16D1  
                              l3500 0A81                                l3190 14F0  
                              l3238 1486                                l3422 07F7  
                              l3414 07F1                                l3246 14CB  
                              l2710 15EB                                l2702 15D9  
                              l2382 1775                                l2374 1756  
                              l2366 1746                                l2358 1737  
                              l2446 08C4                                l2438 0860  
                              l3406 075A                                l3350 0658  
                              l3342 05CE                                l3334 056F  
                              l3326 051F                                l3318 04A2  
                              l3270 0425                                l2278 0FF1  
                              l2198 0EB9                                l2462 17BA  
                              l3262 1705                                l3254 16D6  
                              l3502 0A87                                l3510 0A97  
                              l3184 14DE                                l3424 07FA  
                              l3416 07F2                                l3192 154A  
                              l3440 0787                                l3432 0766  
                              l2720 1600                                l2712 15F1  
                              l2704 15DE                                l2376 1767  
                              l2368 1749                                l2384 177B  
                              l2392 1671                                l3360 06A4  
                              l3352 0680                                l3344 05F9  
                              l3336 057D                                l3328 053B  
                              l3280 0435                                l3272 0427  
                              l2480 17DF                                l2472 17C8  
                              l2464 17BC                                l2456 179E  
                              l2640 08E2                                l3264 1710  
                              l3256 16E1                                l3248 16C8  
                              l3600 0330                                l2800 0C8D  
                              l3520 0AF8                                l3512 0AA2  
                              l3504 0A8C                                l3186 14E8  
                              l3418 07F3                                l3194 1552  
                              l3442 0799                                l3434 076F  
                              l3426 0763                                l2730 1616  
                              l2722 1603                                l2706 15E4  
                              l2386 1780                                l2378 176D  
                              l2394 1672                                l3370 06B9  
                              l3362 06A5                                l3354 0689  
                              l3346 0607                                l3338 059A  
                              l3290 044F                                l3282 043A  
                              l3274 042B                                l2482 17EF  
                              l2466 17C0                                l2474 17D8  
                              l2458 17B1                                l2650 0910  
                              l2642 08F2                                l2634 08C9  
                              l3266 171B                                l3258 16F5  
                              l3610 035A                                l3602 0336  
                              l3530 005C                                l2810 0CA3  
                              l2802 0C8E                                l3522 0B2E  
                              l3514 0AAC                                l3506 0A90  
                              l3188 14EA                                l3196 1562  
                              l3460 07D3                                l3452 07B2  
                              l3444 07A4                                l3436 077D  
                              l2724 1608                                l2708 15E9  
                              l2716 15F5                                l2388 1785  
                              l2396 1676                                l3380 06DE  
                              l3372 06BD                                l3364 06AE  
                              l3356 0697                                l3348 0632  
                              l3292 0453                                l3284 0442  
                              l3276 042F                                l3268 0421  
                              l2484 17F4                                l2660 093F  
                              l2652 0912                                l2636 08CE  
                              l3620 03C0                                l3604 0342  
                              l3612 0365                                l3540 00A7  
                              l3532 0061                                l2812 0CA6  
                              l3524 0B34                                l3516 0AB4  
                              l3508 0A96                                l3700 0C29  
                              l3198 1568                                l3454 07BB  
                              l3446 07AF                                l3438 0781  
                              l2726 160E                                l2718 15FA  
                              l2734 1618                                l2398 167B  
                              l3390 071C                                l3382 06EC  
                              l3374 06D1                                l3358 06A0  
                              l3366 06B4                                l3294 0457  
                              l3286 0444                                l3278 0430  
                              l2486 14FD                                l2670 0972  
                              l2662 0949                                l2654 0920  
                              l2646 08FE                                l2638 08D2  
                              l3630 03EF                                l3622 03DB  
                              l3614 0380                                l3606 0348  
                              l3550 0106                                l3542 00C2  
                              l3534 006C                                l3526 004F  
                              l2822 0CC0                                l2814 0CA7  
                              l2806 0C91                                l3470 0994  
                              l3462 097F                                l3518 0AF2  
                              l3710 0C4C                                l3702 0C34  
                              l3456 07C9                                l2728 1614  
                              l3392 0727                                l3384 06F0  
                              l3368 06B8                                l3296 0458  
                              l3288 044C                                l2488 1501  
                              l2672 0973                                l2664 0953  
                              l2656 0930                                l2648 0909  
                              l3640 0418                                l3632 03F0  
                              l3624 03E2                                l3616 039B  
                              l3608 0354                                l3560 013A  
                              l3552 0114                                l3544 00CC  
                              l3536 0081                                l3528 0054  
                              l2904 0D76                                l2840 0CFC  
                              l2832 0CE7                                l2808 0CA2  
                              l3480 09AF                                l3472 0999  
                              l3464 0985                                l3704 0C3C  
                              l3458 07CD                                l3394 0736  
                              l3386 0709                                l3378 06D9  
                              l3298 045D                                l2666 0969  
                              l2658 093B                                l3642 041A  
                              l3634 03FB                                l3626 03E7  
                              l3618 03A5                                l3570 0211  
                              l3562 0145                                l3554 0119  
                              l3546 00E7                                l3538 008C  
                              l2850 0D12                                l2842 0CFD  
                              l2834 0CE8                                l2826 0CD6  
                              l2818 0CAA                                l3490 0A3B  
                              l3482 09B9                                l3474 099D  
                              l3466 098A                                l3706 0C41  
                              l3714 0C53                                l3650 0B72  
                              l2692 15C6                                l3396 0740  
                              l3388 070F                                l2668 096E  
                              l3644 041B                                l3636 0406  
                              l3628 03EC                                l3580 022B  
                              l3572 0214                                l3564 0154  
                              l3556 0124                                l3548 0102  
                              l2860 0D1D                                l2852 0D15  
                              l2780 0C6C                                l2908 0D87  
                              l3492 0A41                                l3484 09C1  
                              l3476 09A3                                l3468 098E  
                              l3708 0C47                                l3660 0B98  
                              l3652 0B7D                                l2694 15CA  
                              l3398 0742                                l3638 0414  
                              l3590 0280                                l3582 0231  
                              l3566 0191                                l3558 012F  
                              l3574 0215                                l2862 0D2E  
                              l2854 0D16                                l2846 0D00  
                              l2838 0CEB                                l2790 0C74  
                              l2782 0C6D                                l2774 0C67  
                              l3486 09FF                                l3478 09A4  
                              l3494 0A72                                l3670 0BBE  
                              l3662 0BA7                                l3654 0B88  
                              l3646 0B62                                l2696 15CC  
                              l3584 0246                                l3592 028C  
                              l3576 021B                                l3568 01D0  
                              l2880 0D4B                                l2872 0D36  
                              l2864 0D2F                                l2856 0D1B  
                              l2848 0D11                                l2792 0C85  
                              l2784 0C70                                l2776 0C68  
                              l3488 0A05                                l3496 0A78  
                              l3680 0BE2                                l3672 0BCC  
                              l3664 0BAC                                l3656 0B91  
                              l3648 0B67                                l2698 15D2  
                              l3594 0292                                l3586 0252  
                              l3578 021F                                l2882 0D5C  
                              l2874 0D47                                l2866 0D32  
                              l2794 0C86                                l2786 0C71  
                              l2778 0C69                                l3498 0A7D  
                              l3690 0C05                                l3682 0BE8  
                              l3674 0BD2                                l3666 0BB1  
                              l3596 0318                                l3588 0274  
                              l2884 0D5D                                l2876 0D48  
                              l2868 0D33                                l2796 0C89  
                              l3692 0C0F                                l3684 0BEA  
                              l3676 0BD7                                l3668 0BBA  
                              l3598 0324                                l2886 0D60  
                              l2798 0C8A                                l3694 0C15  
                              l3686 0BEF                                l3678 0BDC  
                              l2896 0D64                                l2888 0D61  
                              l3696 0C1B                                l3688 0BFA  
                              l3698 0C22                                ?_isr 0070  
                              STR_1 108A                                STR_2 107D  
                              STR_3 1022                                STR_4 10CF  
                              STR_5 1116                                STR_6 1062  
                              STR_7 116B                                STR_8 1171  
                              STR_9 10F8                                u2000 0DC9  
                              u2001 0DC8                                u2010 0DE6  
                              u2011 0DE5                                u2100 0E6B  
                              u2020 0DEF                                u2101 0E6A  
                              u2021 0DEE                                u2110 0E78  
                              u2030 0DF5                                u2111 0E77  
                              u2031 0DF4                                u2040 0DFA  
                              u2041 0DF9                                u2210 0EED  
                              u2130 0E8C                                u2050 0E13  
                              u2211 0EEC                                u2131 0E8B  
                              u2051 0E12                                u2300 0F85  
                              u2140 0E90                                u2060 0E17  
                              u2301 0F84                                u2221 0F04  
                              u2213 0EE9                                u2205 0ECD  
                              u2141 0E8F                                u2125 0E7B  
                              u2061 0E16                                u2310 0F8B  
                              u2230 0F18                                u2222 0F05  
                              u2150 0E95                                u2070 0E4F  
                              u2311 0F8A                                u2231 0F19  
                              u2223 0F0A                                u2151 0E94  
                              u2071 0E4E                                u4000 0457  
                              u2400 0FDF                                u2320 0F90  
                              u2240 0F35                                u2232 0F1E  
                              u2224 0F0B                                u2080 0E58  
                              u4001 0456                                u2401 0FDE  
                              u2321 0F8F                                u2241 0F34  
                              u2233 0F1F                                u2225 0F10  
                              u2161 0EA7                                u2081 0E56  
                              u4010 045D                                u2410 0FEC  
                              u2330 0F96                                u2250 0F5A  
                              u2226 0F11                                u2170 0EB9  
                              u2162 0EAE                                u2090 0E59  
                              u4011 045C                                u2411 0FEB  
                              u2331 0F95                                u2251 0F59  
                              u2171 0EB8                                u2163 0EB5  
                              u2075 0E4B                                u2500 14B3  
                              u4020 0462                                u2420 0FF1  
                              u2340 0F9D                                u2260 0F5F  
                              u2180 0EBD                                u3300 092F  
                              u2501 14B2                                u4101 0561  
                              u4021 0461                                u2421 0FF0  
                              u2341 0F9C                                u2261 0F5E  
                              u2181 0EBC                                u3301 092E  
                              u2510 172C                                u4102 0568  
                              u4030 0479                                u2430 0FFE  
                              u2350 0FA3                                u2190 0ECA  
                              u2511 172B                                u4111 058C  
                              u4103 056F                                u4031 0478  
                              u2431 0FFD                                u2351 0FA2  
                              u2191 0EC9                                u3400 15E4  
                              u2600 1780                                u2520 1737  
                              u4112 0593                                u4040 047E  
                              u2360 0FB5                                u2280 0F75  
                              u3320 093F                                u3240 08CE  
                              u3401 15E3                                u2601 177F  
                              u2521 1736                                u4113 059A  
                              u4041 047D                                u2361 0FB4  
                              u2281 0F74                                u3321 093E  
                              u3241 08CD                                u3410 15E9  
                              u2530 1746                                u2610 1676  
                              u2370 0FC4                                u2290 0F7A  
                              u3330 0945                                u3250 08D2  
                              u3411 15E8                                u2531 1745  
                              u2611 1675                                u4131 05C0  
                              u4051 04CB                                u2291 0F79  
                              u2275 0F6A                                u3331 0944  
                              u3315 0934                                u3251 08D1  
                              u3420 15F1                                u2620 1681  
                              u2700 0838                                u4300 06FF  
                              u4220 06A4                                u4132 05C7  
                              u4052 04D2                                u2380 0FD3  
                              u3340 0949                                u3260 08F2  
                              u3421 15F0                                u2621 1680  
                              u2701 0837                                u4221 06A3  
                              u4205 0682                                u4141 05EB  
                              u4133 05CE                                u4125 059C  
                              u4061 04E7                                u4053 04D9  
                              u2381 0FD2                                u3341 0948  
                              u3261 08F1                                u3430 15FA  
                              u2550 1756                                u2630 168C  
                              u2710 0854                                u4310 071C  
                              u4142 05F2                                u4062 04EE  
                              u2390 0FDA                                u3350 095E  
                              u3431 15F9                                u2551 1755  
                              u2631 168B                                u2711 0853  
                              u4311 071B                                u4215 0699  
                              u4151 0616                                u4143 05F9  
                              u4071 0511                                u4063 04F5  
                              u2391 0FD9                                u2375 0FBF  
                              u3440 1600                                u2720 0860  
                              u4320 0736                                u4240 06B8  
                              u4160 063E                                u4152 061D  
                              u4072 0518                                u2800 17C7  
                              u3360 096E                                u3280 090F  
                              u4400 0A05                                u3441 15FF  
                              u2545 174A                                u2721 085F  
                              u4321 0735                                u4305 06FA  
                              u4241 06B7                                u4153 0624  
                              u4081 052D                                u4073 051F  
                              u2801 17C6                                u3361 096D  
                              u3281 090E                                u4401 0A04  
                              u3450 1608                                u2570 1767  
                              u2650 169C                                u2490 14A8  
                              u4330 0752                                u4250 06BD  
                              u4082 0534                                u3370 0972  
                              u4410 0A41                                u3451 1607  
                              u2571 1766                                u2651 169B  
                              u2491 14A7                                u2731 086F  
                              u4331 0751                                u4315 0718  
                              u4251 06BC                                u4235 06A7  
                              u4171 064A                                u4083 053B  
                              u3371 0971                                u3355 0959  
                              u3275 0901                                u4411 0A40  
                              u4340 0787                                u3460 160E  
                              u3380 15D2                                u2660 16A6  
                              u2740 0888                                u2732 0870  
                              u4260 06D1                                u4180 0666  
                              u4172 0651                                u2820 17D7  
                              u4500 0231                                u4420 0A78  
                              u4341 0786                                u3461 160D  
                              u3381 15D1                                u2565 1757  
                              u2661 16A5                                u2645 1690  
                              u2741 0887                                u2733 0875  
                              u4325 0732                                u4261 06D0  
                              u4173 0658                                u4165 0639  
                              u2821 17D6                                u4501 0230  
                              u4421 0A77                                u4350 07D3  
                              u3470 1614                                u3390 15D7  
                              u2590 177B                                u2734 0876  
                              u4270 06D8                                u2830 17DE  
                              u4510 0246                                u4430 0A87  
                              u4351 07D2                                u3471 1613  
                              u3391 15D6                                u2591 177A  
                              u2575 1763                                u2751 0897  
                              u2735 087B                                u4271 06D7  
                              u4191 0672                                u4095 053D  
                              u2831 17DD                                u2815 17C9  
                              u3295 0921                                u4511 0245  
                              u4431 0A86                                u2680 16B9  
                              u2760 08C2                                u2752 0898  
                              u2736 087C                                u4280 06DE  
                              u4192 0679                                u4520 0274  
                              u4360 0985                                u4440 0A96  
                              u4600 0B97                                u2585 176F  
                              u2681 16B8                                u2665 16A2  
                              u2761 08C1                                u2753 089D  
                              u4281 06DD                                u4193 0680  
                              u4185 0661                                u4521 0273  
                              u4361 0984                                u4441 0A95  
                              u4601 0B96                                u2690 16BE  
                              u2754 089E                                u4290 06F0  
                              u2850 17EF                                u2770 1795  
                              u4530 0292                                u4370 0994  
                              u4450 0AB4                                u4610 0BCC  
                              u2691 16BD                                u2675 16AD  
                              u2755 08A3                                u4291 06EF  
                              u2851 17EE                                u2771 1794  
                              u4531 0291                                u4515 0242  
                              u4371 0993                                u4451 0AB3  
                              u4611 0BCB                                _PEIE 005E  
                              u2756 08A4                                u1980 0DBE  
                              u2860 17F4                                u2780 17AC  
                              u4540 0318                                u4380 09A3  
                              u4460 0AF8                                u4620 0BD2  
                              u2765 08BE                                u1981 0DBD  
                              u2861 17F3                                u2845 17E1  
                              u4541 0317                                u4525 0270  
                              u4381 09A2                                u4461 0AF7  
                              u4621 0BD1                                u3910 1578  
                              u1990 0DC4                                u2790 17C0  
                              u4550 0336                                u4390 09C1  
                              u4470 0B34                                u4630 0BD7  
                              u3911 1577                                u1991 0DC3  
                              u2791 17BF                                u4551 0335  
                              u4391 09C0                                u4471 0B33  
                              u4631 0BD6                                u3904 14E8  
                              u3920 1531                                u4560 0348  
                              u4480 005C                                u4640 0BE2  
                              u3921 1530                                u2785 17A7  
                              u4561 0347                                u4481 005B  
                              u4641 0BE1                                u4570 035A  
                              u4490 021B                                u4650 0BE8  
                              u4571 0359                                u4491 021A  
                              u4651 0BE7                                u4707 0BA0  
                              u3940 1545                                u4580 03E2  
                              u4660 0C0F                                u3941 1544  
                              u4581 03E1                                u4717 010E  
                              u4661 0C0E                                u3950 16CE  
                              u4590 03E7                                u4670 0C15  
                              u4807 1651                                u3935 1538  
                              u3951 16CD                                u4727 040E  
                              u4591 03E6                                u4671 0C14  
                              u3960 16F2                                u4680 0C3C  
                              u4817 165F                                u4737 149C  
                              u3961 16F1                                u4681 0C3B  
                              u3890 14E5                                u3970 042F  
                              u4690 0C47                                u3891 14E1  
                              u4827 166D                                u4747 0777  
                              u3971 042E                                u4691 0C46  
                              u3980 0435                                u4837 14ED  
                              u4757 07C3                                u3981 0434  
                              u3990 043A                                u4847 14F7  
                              u4767 07DB                                u3991 0439  
                              u4777 161E                                u4787 162D  
                              u4797 163B                                _Time 0066  
                              _main 0B62                                btemp 007E  
                              start 000C                   ___bmul@multiplier 0074  
                    clcd_write@byte 0075                      clcd_write@mode 0072  
                             ??_isr 0070                       ___fltol@sign1 0048  
                   __end_of___fladd 1000                               ?_main 0070  
                   __end_of___awdiv 178A                               STR_10 1140  
                             STR_11 10AE                               STR_20 1181  
                             STR_12 10B9                               STR_21 1139  
                             STR_13 1131                               STR_30 10DA  
                             STR_22 1177                               STR_14 10C4  
                             STR_31 115F                               STR_23 1185  
                             STR_15 110C                               STR_40 1147  
                             STR_32 10EE                               STR_24 1097  
                             STR_16 1120                               STR_41 1165  
                             STR_33 10E4                               STR_25 1011  
                             STR_17 1102                               STR_34 1147  
                             STR_42 1129                               STR_26 1000  
                             STR_18 10A3                               STR_35 1165  
                             STR_27 1070                               STR_43 1053  
                             STR_19 117C                               STR_28 1159  
                             STR_36 114D                               STR_44 1033  
                   __end_of___awmod 16C8                               STR_37 1165  
                             STR_29 1153                               STR_45 1043  
                             STR_38 114D                               STR_46 10DA  
                             STR_39 114D                               STR_47 115F  
                             STR_48 10EE                               STR_49 10E4  
                   __end_of___flmul 0763                     __end_of___flsub 1521  
                   __end_of___fltol 1800                     ___awdiv@divisor 0072  
                             i1l359 15BF                        ?_init_config 0070  
                   ___awdiv@counter 0076                               _PORTB 0006  
                             _PORTD 0008                               _TRISB 0086  
                             _TRISD 0088                        ?_init_timer2 0070  
              __end_of_clear_screen 14A2                               _count 00C2  
                             _level 006B                               pclath 000A  
                             status 0003                               wtemp0 007E  
                   __initialization 000F                        __end_of_main 0C67  
                      powering_on@i 0025                              ??_main 0061  
                    run_program@key 0060                    ___awdiv@dividend 0074  
                            i1l3170 15A1                              i1l3180 15B2  
                            i1l3172 15A4                              i1l3164 1579  
                            i1l3174 15A9                              i1l3182 15BC  
                            i1l3166 157F                              i1l3176 15AE  
                            i1l3168 159A                              i1l3178 15B0  
                            u384_20 157F                              u384_21 157E  
                            u385_20 159A                              u385_21 1599  
                            u386_20 15A1                              u386_21 15A0  
                            u387_20 15A9                              u387_21 15A8  
                            u388_20 15AE                              u388_21 15AD  
                            _TMR2IE 0461                              _TMR2IF 0061  
                            _TMR2ON 0092                              _TRISC1 0439  
                            _TRISC2 043A                              _TRISE1 0449  
                            _TRISE2 044A                    __end_of___xxtofl 097C  
      ??_washing_program_displaying 0022         __end_of_init_digital_keypad 147D  
                            ___flge 0822                              ___bmul 14A2  
           _init_display_controller 161A                           ??___fladd 0020  
                         ??___awdiv 0076                           ??___awmod 0076  
                         ??___flmul 002E                           ??___flsub 007A  
                         ??___fltol 0044                          _Rinse_time 00C8  
                  powering_on@i_173 0026                    ___awdiv@quotient 0078  
                   ___awmod@divisor 0072                     ___awmod@counter 0076  
                      __pdataCOMMON 007A                    __end_of_set_time 0DB0  
                            saved_w 007E                          ___flge@ff1 0048  
                        ___flge@ff2 004C                        ___xxtofl@arg 0022  
                      ___xxtofl@exp 0021                          _Total_time 0068  
                      ___xxtofl@val 0072             __end_of__initialization 0048  
                        ___fltol@f1 0040                 ___bmul@multiplicand 0072  
                      ?_powering_on 0070                      __pcstackCOMMON 0070  
                      __pidataBANK0 07FE                        __pidataBANK1 0800  
                      ?_run_program 0070                          __pbssBANK0 0066  
                        __pbssBANK1 00C2            _water_lvl_screen_display 0A6F  
         ??_init_display_controller 0076                          _clcd_print 154A  
                        _clcd_putch 14C8                          _clcd_write 14DD  
                 __end_of__Umul8_16 154A                          __pmaintext 0B62  
                      _clear_screen 1491                             ?___flge 0048  
                           ?___bmul 0072                          __pintentry 0004  
       __end_of_read_digital_keypad 161A                           ?___xxtofl 0072  
                        __stringtab 1189  __end_of_washing_program_displaying 0A6F  
        _washing_program_displaying 097C                           ?_set_time 0070  
                           ___fladd 0DB0                             ___awdiv 1727  
                           ___awmod 1671                             ___flmul 0421  
                           ___flsub 14FD                             ___fltol 178A  
                           __ptext1 0A6F                             __ptext2 097C  
                           __ptext3 0C67                             __ptext4 004C  
                           __ptext5 16C8                             __ptext6 1491  
                           __ptext7 08C6                             __ptext8 178A  
                           __ptext9 14FD     __end_of_init_display_controller 1671  
                 __end_of_init_clcd 1491              read_digital_keypad@key 0072  
                        ??___xxtofl 0076                    ___awmod@dividend 0074  
                  _washing_programs 00A0                end_of_initialization 0048  
                       ?_clcd_print 0076                         ?_clcd_putch 0020  
                       ?_clcd_write 0072                          _reset_flag 006F  
                        ??_set_time 0072                        __pstringtext 1000  
                       ___fladd@grs 002B                       ___xxtofl@sign 0020  
                     clcd_print@str 0076                         ___flmul@grs 0035  
                    __end_of___flge 08C6                      __end_of___bmul 14B5  
                     __pidataCOMMON 07FC                 start_initialization 000F  
                       __end_of_isr 15C6          ??_water_lvl_screen_display 0022  
                          ??___flge 0050                            ??___bmul 0073  
                        init_fetch0 14B5                           _Wash_time 0067  
                         __Umul8_16 1521                         __pdataBANK0 006E  
                       __pdataBANK1 00A0          read_digital_keypad@pre_key 00C6  
                         _Spin_time 00C7                       ??_init_config 0078  
                         ___fladd@a 0076                           ___fladd@b 0072  
                     ??_init_timer2 0072                           ___flmul@a 002A  
                         ___flmul@b 0026                           ___flsub@a 0040  
                         ___flsub@b 0044                           ___latbits 0002  
                     __pcstackBANK0 0020         ?_washing_program_displaying 0070  
                          ?___fladd 0072                            ?___awdiv 0072  
                          ?___awmod 0072                            ?___flmul 0026  
                          ?___flsub 0040                            ?___fltol 0040  
                        ?__Umul8_16 0072                           __pstrings 1189  
                         _init_clcd 1486                 __end_of_init_config 07FC  
       water_lvl_screen_display@key 0024      read_digital_keypad@longpressed 007A  
               __end_of_init_timer2 1486            ?_init_display_controller 0070  
                 interrupt_function 0004                        ??_clcd_print 0079  
                      ??_clcd_putch 007A                        ??_clcd_write 0073  
                       __stringbase 119B                           main@delay 0064  
  __end_of_water_lvl_screen_display 0B62                  __end_of_clcd_print 1579  
                __end_of_clcd_putch 14DD                  __end_of_clcd_write 14FD  
                        ?_init_clcd 0070       washing_program_displaying@key 0024  
               _init_digital_keypad 1477                       ??_powering_on 0022  
                       ??__Umul8_16 0074                ?_init_digital_keypad 0070  
                __end_of__stringtab 119B                         _init_config 07E2  
                          ___xxtofl 08C6                    _operational_mode 006E  
                       _init_timer2 147D                       ??_run_program 0054  
                          __ptext10 0DB0                            __ptext11 0421  
                          __ptext20 154A                            __ptext12 1521  
                          __ptext21 07E2                            __ptext13 0822  
                          __ptext22 147D                            __ptext14 14A2  
                          __ptext23 1477                            __ptext15 1671  
                          __ptext24 1486                            __ptext16 1727  
                          __ptext25 161A                            __ptext17 15C6  
                          __ptext26 14DD                            __ptext18 0763  
                          __ptext27 1579                            __ptext19 14C8  
           read_digital_keypad@mode 0070             read_digital_keypad@once 007B  
                     ?_clear_screen 0070                            _set_time 0C67  
             ??_init_digital_keypad 0072                   _door_status_check 16C8  
               __end_of_powering_on 07E2                  ?_door_status_check 0070  
               ??_door_status_check 0079                            init_ram0 14B9  
                       ??_init_clcd 0078                            intlevel1 0000  
               __end_of_run_program 0421                           stringcode 1193  
                    ??_clear_screen 0076           ?_water_lvl_screen_display 0070  
         __end_of_door_status_check 1727                 _read_digital_keypad 15C6  
            __Umul8_16@multiplicand 0072                            stringtab 1189  
                     _program_index 006C                       ___fladd@signs 0028  
              ?_read_digital_keypad 0070                         _water_level 00B8  
                      ___fladd@aexp 0029                        ___fladd@bexp 002A  
              __Umul8_16@multiplier 0024                   __Umul8_16@product 0020  
                       _powering_on 0763  
